   1               		.file	"rf_receive.c"
   2               	__SP_H__ = 0x3e
   3               	__SP_L__ = 0x3d
   4               	__SREG__ = 0x3f
   5               	__tmp_reg__ = 0
   6               	__zero_reg__ = 1
   7               		.comm	packetCheckValues,1,1
   8               		.comm	tx_report,1,1
   9               		.local	obuf
  10               		.comm	obuf,50,1
  11               		.local	bucket_array
  12               		.comm	bucket_array,146,1
  13               		.local	bucket_in
  14               		.comm	bucket_in,1,1
  15               		.local	bucket_out
  16               		.comm	bucket_out,1,1
  17               		.local	bucket_nrused
  18               		.comm	bucket_nrused,1,1
  19               		.local	nibble
  20               		.comm	nibble,1,1
  21               		.local	roby
  22               		.comm	roby,1,1
  23               		.local	robuf
  24               		.comm	robuf,50,1
  25               		.local	reptime
  26               		.comm	reptime,4,1
  27               		.local	maxLevel
  28               		.comm	maxLevel,2,1
  29               		.local	hightime
  30               		.comm	hightime,2,1
  31               		.local	lowtime
  32               		.comm	lowtime,2,1
  33               		.text
  34               	.global	tx_init
  36               	tx_init:
  37 0000 A2E0      		ldi r26,lo8(2)
  38 0002 B0E0      		ldi r27,0
  39 0004 E0E0      		ldi r30,lo8(gs(1f))
  40 0006 F0E0      		ldi r31,hi8(gs(1f))
  41 0008 0C94 0000 		jmp __prologue_saves__+((18 - 2) * 2)
  42               	1:
  43               	/* prologue: function */
  44               	/* frame size = 2 */
  45               	/* stack size = 4 */
  46               	.L__stack_usage = 4
  47 000c 84E2      		ldi r24,lo8(36)
  48 000e 90E0      		ldi r25,0
  49 0010 24E2      		ldi r18,lo8(36)
  50 0012 30E0      		ldi r19,0
  51 0014 F901      		movw r30,r18
  52 0016 2081      		ld r18,Z
  53 0018 2860      		ori r18,lo8(8)
  54 001a FC01      		movw r30,r24
  55 001c 2083      		st Z,r18
  56 001e 85E2      		ldi r24,lo8(37)
  57 0020 90E0      		ldi r25,0
  58 0022 25E2      		ldi r18,lo8(37)
  59 0024 30E0      		ldi r19,0
  60 0026 F901      		movw r30,r18
  61 0028 2081      		ld r18,Z
  62 002a 277F      		andi r18,lo8(-9)
  63 002c FC01      		movw r30,r24
  64 002e 2083      		st Z,r18
  65 0030 84E2      		ldi r24,lo8(36)
  66 0032 90E0      		ldi r25,0
  67 0034 24E2      		ldi r18,lo8(36)
  68 0036 30E0      		ldi r19,0
  69 0038 F901      		movw r30,r18
  70 003a 2081      		ld r18,Z
  71 003c 2B7F      		andi r18,lo8(-5)
  72 003e FC01      		movw r30,r24
  73 0040 2083      		st Z,r18
  74 0042 89E6      		ldi r24,lo8(105)
  75 0044 90E0      		ldi r25,0
  76 0046 29E6      		ldi r18,lo8(105)
  77 0048 30E0      		ldi r19,0
  78 004a F901      		movw r30,r18
  79 004c 2081      		ld r18,Z
  80 004e 2061      		ori r18,lo8(16)
  81 0050 FC01      		movw r30,r24
  82 0052 2083      		st Z,r18
  83 0054 82EC      		ldi r24,lo8(-62)
  84 0056 91E0      		ldi r25,lo8(1)
  85 0058 9093 0000 		sts credit_10ms+1,r25
  86 005c 8093 0000 		sts credit_10ms,r24
  87 0060 81E0      		ldi r24,lo8(1)
  88 0062 90E0      		ldi r25,0
  89 0064 9A83      		std Y+2,r25
  90 0066 8983      		std Y+1,r24
  91 0068 00C0      		rjmp .L2
  92               	.L3:
  93 006a 2981      		ldd r18,Y+1
  94 006c 3A81      		ldd r19,Y+2
  95 006e 49E4      		ldi r20,lo8(73)
  96 0070 429F      		mul r20,r18
  97 0072 C001      		movw r24,r0
  98 0074 439F      		mul r20,r19
  99 0076 900D      		add r25,r0
 100 0078 1124      		clr __zero_reg__
 101 007a 8050      		subi r24,lo8(-(bucket_array))
 102 007c 9040      		sbci r25,hi8(-(bucket_array))
 103 007e FC01      		movw r30,r24
 104 0080 1082      		st Z,__zero_reg__
 105 0082 8981      		ldd r24,Y+1
 106 0084 9A81      		ldd r25,Y+2
 107 0086 0196      		adiw r24,1
 108 0088 9A83      		std Y+2,r25
 109 008a 8983      		std Y+1,r24
 110               	.L2:
 111 008c 8981      		ldd r24,Y+1
 112 008e 9A81      		ldd r25,Y+2
 113 0090 0297      		sbiw r24,2
 114 0092 04F0      		brlt .L3
 115 0094 1092 0000 		sts cc_on,__zero_reg__
 116               	/* epilogue start */
 117 0098 2296      		adiw r28,2
 118 009a E2E0      		ldi r30, lo8(2)
 119 009c 0C94 0000 		jmp __epilogue_restores__ + ((18 - 2) * 2)
 121               	.global	set_txrestore
 123               	set_txrestore:
 124 00a0 A0E0      		ldi r26,0
 125 00a2 B0E0      		ldi r27,0
 126 00a4 E0E0      		ldi r30,lo8(gs(1f))
 127 00a6 F0E0      		ldi r31,hi8(gs(1f))
 128 00a8 0C94 0000 		jmp __prologue_saves__+((18 - 2) * 2)
 129               	1:
 130               	/* prologue: function */
 131               	/* frame size = 0 */
 132               	/* stack size = 2 */
 133               	.L__stack_usage = 2
 134 00ac 8091 0000 		lds r24,tx_report
 135 00b0 8823      		tst r24
 136 00b2 01F0      		breq .L5
 137 00b4 0E94 0000 		call set_ccon
 138 00b8 0E94 0000 		call ccRX
 139 00bc 00C0      		rjmp .L4
 140               	.L5:
 141 00be 0E94 0000 		call set_ccoff
 142               	.L4:
 143               	/* epilogue start */
 144 00c2 E2E0      		ldi r30, lo8(2)
 145 00c4 0C94 0000 		jmp __epilogue_restores__ + ((18 - 2) * 2)
 147               	.global	set_txreport
 149               	set_txreport:
 150 00c8 A2E0      		ldi r26,lo8(2)
 151 00ca B0E0      		ldi r27,0
 152 00cc E0E0      		ldi r30,lo8(gs(1f))
 153 00ce F0E0      		ldi r31,hi8(gs(1f))
 154 00d0 0C94 0000 		jmp __prologue_saves__+((18 - 2) * 2)
 155               	1:
 156               	/* prologue: function */
 157               	/* frame size = 2 */
 158               	/* stack size = 4 */
 159               	.L__stack_usage = 4
 160 00d4 9A83      		std Y+2,r25
 161 00d6 8983      		std Y+1,r24
 162 00d8 8981      		ldd r24,Y+1
 163 00da 9A81      		ldd r25,Y+2
 164 00dc 0196      		adiw r24,1
 165 00de FC01      		movw r30,r24
 166 00e0 8081      		ld r24,Z
 167 00e2 8823      		tst r24
 168 00e4 01F4      		brne .L8
 169 00e6 8091 0000 		lds r24,tx_report
 170 00ea 0E94 0000 		call display_hex2
 171 00ee 8091 0000 		lds r24,credit_10ms
 172 00f2 9091 0000 		lds r25,credit_10ms+1
 173 00f6 40E2      		ldi r20,lo8(32)
 174 00f8 65E0      		ldi r22,lo8(5)
 175 00fa 0E94 0000 		call display_udec
 176 00fe 0E94 0000 		call display_nl
 177 0102 00C0      		rjmp .L7
 178               	.L8:
 179 0104 8981      		ldd r24,Y+1
 180 0106 9A81      		ldd r25,Y+2
 181 0108 0196      		adiw r24,1
 182 010a 41E0      		ldi r20,lo8(1)
 183 010c 60E0      		ldi r22,lo8(tx_report)
 184 010e 70E0      		ldi r23,hi8(tx_report)
 185 0110 0E94 0000 		call fromhex
 186 0114 0E94 0000 		call set_txrestore
 187               	.L7:
 188               	/* epilogue start */
 189 0118 2296      		adiw r28,2
 190 011a E2E0      		ldi r30, lo8(2)
 191 011c 0C94 0000 		jmp __epilogue_restores__ + ((18 - 2) * 2)
 193               	.global	cksum1
 195               	cksum1:
 196 0120 A4E0      		ldi r26,lo8(4)
 197 0122 B0E0      		ldi r27,0
 198 0124 E0E0      		ldi r30,lo8(gs(1f))
 199 0126 F0E0      		ldi r31,hi8(gs(1f))
 200 0128 0C94 0000 		jmp __prologue_saves__+((18 - 2) * 2)
 201               	1:
 202               	/* prologue: function */
 203               	/* frame size = 4 */
 204               	/* stack size = 6 */
 205               	.L__stack_usage = 6
 206 012c 8983      		std Y+1,r24
 207 012e 7B83      		std Y+3,r23
 208 0130 6A83      		std Y+2,r22
 209 0132 4C83      		std Y+4,r20
 210 0134 00C0      		rjmp .L11
 211               	.L12:
 212 0136 8C81      		ldd r24,Y+4
 213 0138 8150      		subi r24,lo8(-(-1))
 214 013a 8C83      		std Y+4,r24
 215 013c 8C81      		ldd r24,Y+4
 216 013e 882F      		mov r24,r24
 217 0140 90E0      		ldi r25,0
 218 0142 2A81      		ldd r18,Y+2
 219 0144 3B81      		ldd r19,Y+3
 220 0146 820F      		add r24,r18
 221 0148 931F      		adc r25,r19
 222 014a FC01      		movw r30,r24
 223 014c 8081      		ld r24,Z
 224 014e 9981      		ldd r25,Y+1
 225 0150 890F      		add r24,r25
 226 0152 8983      		std Y+1,r24
 227               	.L11:
 228 0154 8C81      		ldd r24,Y+4
 229 0156 8823      		tst r24
 230 0158 01F4      		brne .L12
 231 015a 8981      		ldd r24,Y+1
 232               	/* epilogue start */
 233 015c 2496      		adiw r28,4
 234 015e E2E0      		ldi r30, lo8(2)
 235 0160 0C94 0000 		jmp __epilogue_restores__ + ((18 - 2) * 2)
 237               	.global	cksum2
 239               	cksum2:
 240 0164 A4E0      		ldi r26,lo8(4)
 241 0166 B0E0      		ldi r27,0
 242 0168 E0E0      		ldi r30,lo8(gs(1f))
 243 016a F0E0      		ldi r31,hi8(gs(1f))
 244 016c 0C94 0000 		jmp __prologue_saves__+((18 - 2) * 2)
 245               	1:
 246               	/* prologue: function */
 247               	/* frame size = 4 */
 248               	/* stack size = 6 */
 249               	.L__stack_usage = 6
 250 0170 9B83      		std Y+3,r25
 251 0172 8A83      		std Y+2,r24
 252 0174 6C83      		std Y+4,r22
 253 0176 1982      		std Y+1,__zero_reg__
 254 0178 00C0      		rjmp .L15
 255               	.L16:
 256 017a 8C81      		ldd r24,Y+4
 257 017c 8150      		subi r24,lo8(-(-1))
 258 017e 8C83      		std Y+4,r24
 259 0180 8C81      		ldd r24,Y+4
 260 0182 882F      		mov r24,r24
 261 0184 90E0      		ldi r25,0
 262 0186 2A81      		ldd r18,Y+2
 263 0188 3B81      		ldd r19,Y+3
 264 018a 820F      		add r24,r18
 265 018c 931F      		adc r25,r19
 266 018e FC01      		movw r30,r24
 267 0190 8081      		ld r24,Z
 268 0192 9981      		ldd r25,Y+1
 269 0194 8927      		eor r24,r25
 270 0196 8983      		std Y+1,r24
 271               	.L15:
 272 0198 8C81      		ldd r24,Y+4
 273 019a 8823      		tst r24
 274 019c 01F4      		brne .L16
 275 019e 8981      		ldd r24,Y+1
 276               	/* epilogue start */
 277 01a0 2496      		adiw r28,4
 278 01a2 E2E0      		ldi r30, lo8(2)
 279 01a4 0C94 0000 		jmp __epilogue_restores__ + ((18 - 2) * 2)
 281               	.global	cksum3
 283               	cksum3:
 284 01a8 A7E0      		ldi r26,lo8(7)
 285 01aa B0E0      		ldi r27,0
 286 01ac E0E0      		ldi r30,lo8(gs(1f))
 287 01ae F0E0      		ldi r31,hi8(gs(1f))
 288 01b0 0C94 0000 		jmp __prologue_saves__+((18 - 2) * 2)
 289               	1:
 290               	/* prologue: function */
 291               	/* frame size = 7 */
 292               	/* stack size = 9 */
 293               	.L__stack_usage = 9
 294 01b4 9E83      		std Y+6,r25
 295 01b6 8D83      		std Y+5,r24
 296 01b8 6F83      		std Y+7,r22
 297 01ba 1982      		std Y+1,__zero_reg__
 298 01bc 85E0      		ldi r24,lo8(5)
 299 01be 8A83      		std Y+2,r24
 300 01c0 1B82      		std Y+3,__zero_reg__
 301 01c2 00C0      		rjmp .L19
 302               	.L22:
 303 01c4 8F81      		ldd r24,Y+7
 304 01c6 8150      		subi r24,lo8(-(-1))
 305 01c8 8F83      		std Y+7,r24
 306 01ca 8F81      		ldd r24,Y+7
 307 01cc 882F      		mov r24,r24
 308 01ce 90E0      		ldi r25,0
 309 01d0 2D81      		ldd r18,Y+5
 310 01d2 3E81      		ldd r19,Y+6
 311 01d4 820F      		add r24,r18
 312 01d6 931F      		adc r25,r19
 313 01d8 FC01      		movw r30,r24
 314 01da 8081      		ld r24,Z
 315 01dc 8C83      		std Y+4,r24
 316 01de 8C81      		ldd r24,Y+4
 317 01e0 8295      		swap r24
 318 01e2 8F70      		andi r24,lo8(15)
 319 01e4 9981      		ldd r25,Y+1
 320 01e6 8927      		eor r24,r25
 321 01e8 8983      		std Y+1,r24
 322 01ea 8C81      		ldd r24,Y+4
 323 01ec 8295      		swap r24
 324 01ee 8F70      		andi r24,lo8(15)
 325 01f0 9A81      		ldd r25,Y+2
 326 01f2 890F      		add r24,r25
 327 01f4 8A83      		std Y+2,r24
 328 01f6 8091 0000 		lds r24,nibble
 329 01fa 8823      		tst r24
 330 01fc 01F0      		breq .L20
 331 01fe 8B81      		ldd r24,Y+3
 332 0200 8823      		tst r24
 333 0202 01F0      		breq .L21
 334               	.L20:
 335 0204 8C81      		ldd r24,Y+4
 336 0206 982F      		mov r25,r24
 337 0208 9F70      		andi r25,lo8(15)
 338 020a 8981      		ldd r24,Y+1
 339 020c 8927      		eor r24,r25
 340 020e 8983      		std Y+1,r24
 341 0210 8C81      		ldd r24,Y+4
 342 0212 8F70      		andi r24,lo8(15)
 343 0214 9A81      		ldd r25,Y+2
 344 0216 890F      		add r24,r25
 345 0218 8A83      		std Y+2,r24
 346               	.L21:
 347 021a 8B81      		ldd r24,Y+3
 348 021c 8F5F      		subi r24,lo8(-(1))
 349 021e 8B83      		std Y+3,r24
 350               	.L19:
 351 0220 8F81      		ldd r24,Y+7
 352 0222 8823      		tst r24
 353 0224 01F4      		brne .L22
 354 0226 9A81      		ldd r25,Y+2
 355 0228 8981      		ldd r24,Y+1
 356 022a 890F      		add r24,r25
 357 022c 8A83      		std Y+2,r24
 358 022e 8A81      		ldd r24,Y+2
 359 0230 882F      		mov r24,r24
 360 0232 90E0      		ldi r25,0
 361 0234 8295      		swap r24
 362 0236 9295      		swap r25
 363 0238 907F      		andi r25,0xf0
 364 023a 9827      		eor r25,r24
 365 023c 807F      		andi r24,0xf0
 366 023e 9827      		eor r25,r24
 367 0240 982F      		mov r25,r24
 368 0242 8981      		ldd r24,Y+1
 369 0244 892B      		or r24,r25
 370               	/* epilogue start */
 371 0246 2796      		adiw r28,7
 372 0248 E2E0      		ldi r30, lo8(2)
 373 024a 0C94 0000 		jmp __epilogue_restores__ + ((18 - 2) * 2)
 376               	analyze:
 377 024e ADE0      		ldi r26,lo8(13)
 378 0250 B0E0      		ldi r27,0
 379 0252 E0E0      		ldi r30,lo8(gs(1f))
 380 0254 F0E0      		ldi r31,hi8(gs(1f))
 381 0256 0C94 0000 		jmp __prologue_saves__+((18 - 2) * 2)
 382               	1:
 383               	/* prologue: function */
 384               	/* frame size = 13 */
 385               	/* stack size = 15 */
 386               	.L__stack_usage = 15
 387 025a 9A87      		std Y+10,r25
 388 025c 8987      		std Y+9,r24
 389 025e 6B87      		std Y+11,r22
 390 0260 5D87      		std Y+13,r21
 391 0262 4C87      		std Y+12,r20
 392 0264 1982      		std Y+1,__zero_reg__
 393 0266 1A82      		std Y+2,__zero_reg__
 394 0268 1B82      		std Y+3,__zero_reg__
 395 026a 87E0      		ldi r24,lo8(7)
 396 026c 8C83      		std Y+4,r24
 397 026e 87E0      		ldi r24,lo8(7)
 398 0270 8D83      		std Y+5,r24
 399 0272 1092 0000 		sts nibble,__zero_reg__
 400 0276 8985      		ldd r24,Y+9
 401 0278 9A85      		ldd r25,Y+10
 402 027a FC01      		movw r30,r24
 403 027c 8181      		ldd r24,Z+1
 404 027e 282F      		mov r18,r24
 405 0280 220F      		lsl r18
 406 0282 220F      		lsl r18
 407 0284 220F      		lsl r18
 408 0286 8985      		ldd r24,Y+9
 409 0288 9A85      		ldd r25,Y+10
 410 028a FC01      		movw r30,r24
 411 028c 8381      		ldd r24,Z+3
 412 028e F22F      		mov r31,r18
 413 0290 F81B      		sub r31,r24
 414 0292 8F2F      		mov r24,r31
 415 0294 895F      		subi r24,lo8(-(7))
 416 0296 8E83      		std Y+6,r24
 417 0298 1092 0000 		sts obuf,__zero_reg__
 418 029c 00C0      		rjmp .L25
 419               	.L41:
 420 029e 8B81      		ldd r24,Y+3
 421 02a0 882F      		mov r24,r24
 422 02a2 90E0      		ldi r25,0
 423 02a4 2985      		ldd r18,Y+9
 424 02a6 3A85      		ldd r19,Y+10
 425 02a8 820F      		add r24,r18
 426 02aa 931F      		adc r25,r19
 427 02ac 0496      		adiw r24,4
 428 02ae FC01      		movw r30,r24
 429 02b0 8081      		ld r24,Z
 430 02b2 882F      		mov r24,r24
 431 02b4 90E0      		ldi r25,0
 432 02b6 2C81      		ldd r18,Y+4
 433 02b8 022E      		mov __tmp_reg__,r18
 434 02ba 000C      		lsl r0
 435 02bc 330B      		sbc r19,r19
 436 02be 00C0      		rjmp 2f
 437               		1:
 438 02c0 9595      		asr r25
 439 02c2 8795      		ror r24
 440               		2:
 441 02c4 2A95      		dec r18
 442 02c6 02F4      		brpl 1b
 443 02c8 8170      		andi r24,1
 444 02ca 9927      		clr r25
 445 02cc 21E0      		ldi r18,lo8(1)
 446 02ce 892B      		or r24,r25
 447 02d0 01F4      		brne .L26
 448 02d2 20E0      		ldi r18,0
 449               	.L26:
 450 02d4 2F83      		std Y+7,r18
 451 02d6 8C81      		ldd r24,Y+4
 452 02d8 982F      		mov r25,r24
 453 02da 9150      		subi r25,lo8(-(-1))
 454 02dc 9C83      		std Y+4,r25
 455 02de 8823      		tst r24
 456 02e0 01F4      		brne .L27
 457 02e2 8B81      		ldd r24,Y+3
 458 02e4 8F5F      		subi r24,lo8(-(1))
 459 02e6 8B83      		std Y+3,r24
 460 02e8 87E0      		ldi r24,lo8(7)
 461 02ea 8C83      		std Y+4,r24
 462               	.L27:
 463 02ec 8B85      		ldd r24,Y+11
 464 02ee 8B34      		cpi r24,lo8(75)
 465 02f0 01F4      		brne .L28
 466 02f2 8D81      		ldd r24,Y+5
 467 02f4 8330      		cpi r24,lo8(3)
 468 02f6 01F4      		brne .L28
 469 02f8 8091 0000 		lds r24,nibble
 470 02fc 8823      		tst r24
 471 02fe 01F4      		brne .L29
 472 0300 8F81      		ldd r24,Y+7
 473 0302 8823      		tst r24
 474 0304 01F4      		brne .L30
 475 0306 80E0      		ldi r24,0
 476 0308 00C0      		rjmp .L31
 477               	.L30:
 478 030a 9091 0000 		lds r25,nibble
 479 030e 81E0      		ldi r24,lo8(1)
 480 0310 9923      		tst r25
 481 0312 01F0      		breq .L32
 482 0314 80E0      		ldi r24,0
 483               	.L32:
 484 0316 8093 0000 		sts nibble,r24
 485 031a 00C0      		rjmp .L25
 486               	.L29:
 487 031c 9091 0000 		lds r25,nibble
 488 0320 81E0      		ldi r24,lo8(1)
 489 0322 9923      		tst r25
 490 0324 01F0      		breq .L33
 491 0326 80E0      		ldi r24,0
 492               	.L33:
 493 0328 8093 0000 		sts nibble,r24
 494               	.L28:
 495 032c 8D81      		ldd r24,Y+5
 496 032e 8F3F      		cpi r24,lo8(-1)
 497 0330 01F0      		breq .+2
 498 0332 00C0      		rjmp .L34
 499 0334 8B85      		ldd r24,Y+11
 500 0336 8634      		cpi r24,lo8(70)
 501 0338 01F4      		brne .L35
 502 033a 8981      		ldd r24,Y+1
 503 033c 882F      		mov r24,r24
 504 033e 90E0      		ldi r25,0
 505 0340 8050      		subi r24,lo8(-(obuf))
 506 0342 9040      		sbci r25,hi8(-(obuf))
 507 0344 FC01      		movw r30,r24
 508 0346 8081      		ld r24,Z
 509               	/* #APP */
 510               	 ;  237 "../../clib/rf_receive.c" 1
 511 0348 082E      		mov __tmp_reg__,r24
 512 034a 8295      		swap r24
 513 034c 8025      		eor r24,__tmp_reg__
 514 034e 082E      		mov __tmp_reg__,r24
 515 0350 8695      		lsr r24
 516 0352 8695      		lsr r24
 517 0354 8025      		eor r24,__tmp_reg__
 518               	 ;  0 "" 2
 519               	/* #NOAPP */
 520 0356 8887      		std Y+8,r24
 521 0358 8885      		ldd r24,Y+8
 522 035a 882F      		mov r24,r24
 523 035c 90E0      		ldi r25,0
 524 035e 0196      		adiw r24,1
 525 0360 9595      		asr r25
 526 0362 8795      		ror r24
 527 0364 9C01      		movw r18,r24
 528 0366 2170      		andi r18,1
 529 0368 3327      		clr r19
 530 036a 8F81      		ldd r24,Y+7
 531 036c 882F      		mov r24,r24
 532 036e 90E0      		ldi r25,0
 533 0370 2817      		cp r18,r24
 534 0372 3907      		cpc r19,r25
 535 0374 01F0      		breq .L35
 536 0376 80E0      		ldi r24,0
 537 0378 00C0      		rjmp .L31
 538               	.L35:
 539 037a 8B85      		ldd r24,Y+11
 540 037c 8534      		cpi r24,lo8(69)
 541 037e 01F0      		breq .L36
 542 0380 8B85      		ldd r24,Y+11
 543 0382 8B34      		cpi r24,lo8(75)
 544 0384 01F4      		brne .L37
 545               	.L36:
 546 0386 8F81      		ldd r24,Y+7
 547 0388 8823      		tst r24
 548 038a 01F4      		brne .L37
 549 038c 80E0      		ldi r24,0
 550 038e 00C0      		rjmp .L31
 551               	.L37:
 552 0390 8981      		ldd r24,Y+1
 553 0392 8F5F      		subi r24,lo8(-(1))
 554 0394 8983      		std Y+1,r24
 555 0396 8981      		ldd r24,Y+1
 556 0398 882F      		mov r24,r24
 557 039a 90E0      		ldi r25,0
 558 039c 8050      		subi r24,lo8(-(obuf))
 559 039e 9040      		sbci r25,hi8(-(obuf))
 560 03a0 FC01      		movw r30,r24
 561 03a2 1082      		st Z,__zero_reg__
 562 03a4 87E0      		ldi r24,lo8(7)
 563 03a6 8D83      		std Y+5,r24
 564 03a8 00C0      		rjmp .L25
 565               	.L34:
 566 03aa 8F81      		ldd r24,Y+7
 567 03ac 8823      		tst r24
 568 03ae 01F4      		brne .+2
 569 03b0 00C0      		rjmp .L38
 570 03b2 8B85      		ldd r24,Y+11
 571 03b4 8634      		cpi r24,lo8(70)
 572 03b6 01F4      		brne .L39
 573 03b8 8981      		ldd r24,Y+1
 574 03ba 882F      		mov r24,r24
 575 03bc 90E0      		ldi r25,0
 576 03be 2981      		ldd r18,Y+1
 577 03c0 222F      		mov r18,r18
 578 03c2 30E0      		ldi r19,0
 579 03c4 2050      		subi r18,lo8(-(obuf))
 580 03c6 3040      		sbci r19,hi8(-(obuf))
 581 03c8 F901      		movw r30,r18
 582 03ca 2081      		ld r18,Z
 583 03cc 622F      		mov r22,r18
 584 03ce 2D81      		ldd r18,Y+5
 585 03d0 422F      		mov r20,r18
 586 03d2 220F      		lsl r18
 587 03d4 550B      		sbc r21,r21
 588 03d6 21E0      		ldi r18,lo8(1)
 589 03d8 30E0      		ldi r19,0
 590 03da 00C0      		rjmp 2f
 591               		1:
 592 03dc 220F      		lsl r18
 593 03de 331F      		rol r19
 594               		2:
 595 03e0 4A95      		dec r20
 596 03e2 02F4      		brpl 1b
 597 03e4 262B      		or r18,r22
 598 03e6 8050      		subi r24,lo8(-(obuf))
 599 03e8 9040      		sbci r25,hi8(-(obuf))
 600 03ea FC01      		movw r30,r24
 601 03ec 2083      		st Z,r18
 602               	.L39:
 603 03ee 8B85      		ldd r24,Y+11
 604 03f0 8534      		cpi r24,lo8(69)
 605 03f2 01F0      		breq .L40
 606 03f4 8B85      		ldd r24,Y+11
 607 03f6 8B34      		cpi r24,lo8(75)
 608 03f8 01F4      		brne .L38
 609               	.L40:
 610 03fa 8981      		ldd r24,Y+1
 611 03fc 882F      		mov r24,r24
 612 03fe 90E0      		ldi r25,0
 613 0400 2981      		ldd r18,Y+1
 614 0402 222F      		mov r18,r18
 615 0404 30E0      		ldi r19,0
 616 0406 2050      		subi r18,lo8(-(obuf))
 617 0408 3040      		sbci r19,hi8(-(obuf))
 618 040a F901      		movw r30,r18
 619 040c 2081      		ld r18,Z
 620 040e 622F      		mov r22,r18
 621 0410 2D81      		ldd r18,Y+5
 622 0412 022E      		mov __tmp_reg__,r18
 623 0414 000C      		lsl r0
 624 0416 330B      		sbc r19,r19
 625 0418 47E0      		ldi r20,lo8(7)
 626 041a 50E0      		ldi r21,0
 627 041c 421B      		sub r20,r18
 628 041e 530B      		sbc r21,r19
 629 0420 21E0      		ldi r18,lo8(1)
 630 0422 30E0      		ldi r19,0
 631 0424 00C0      		rjmp 2f
 632               		1:
 633 0426 220F      		lsl r18
 634 0428 331F      		rol r19
 635               		2:
 636 042a 4A95      		dec r20
 637 042c 02F4      		brpl 1b
 638 042e 262B      		or r18,r22
 639 0430 8050      		subi r24,lo8(-(obuf))
 640 0432 9040      		sbci r25,hi8(-(obuf))
 641 0434 FC01      		movw r30,r24
 642 0436 2083      		st Z,r18
 643               	.L38:
 644 0438 8D81      		ldd r24,Y+5
 645 043a 8150      		subi r24,lo8(-(-1))
 646 043c 8D83      		std Y+5,r24
 647               	.L25:
 648 043e 8A81      		ldd r24,Y+2
 649 0440 91E0      		ldi r25,lo8(1)
 650 0442 980F      		add r25,r24
 651 0444 9A83      		std Y+2,r25
 652 0446 9E81      		ldd r25,Y+6
 653 0448 8917      		cp r24,r25
 654 044a 00F4      		brsh .+2
 655 044c 00C0      		rjmp .L41
 656 044e 9A81      		ldd r25,Y+2
 657 0450 8E81      		ldd r24,Y+6
 658 0452 8917      		cp r24,r25
 659 0454 00F0      		brlo .L42
 660 0456 80E0      		ldi r24,0
 661 0458 00C0      		rjmp .L31
 662               	.L42:
 663 045a 8B85      		ldd r24,Y+11
 664 045c 8534      		cpi r24,lo8(69)
 665 045e 01F4      		brne .L43
 666 0460 8D81      		ldd r24,Y+5
 667 0462 8F3F      		cpi r24,lo8(-1)
 668 0464 01F4      		brne .L43
 669 0466 8981      		ldd r24,Y+1
 670 0468 8F5F      		subi r24,lo8(-(1))
 671 046a 8983      		std Y+1,r24
 672 046c 00C0      		rjmp .L44
 673               	.L43:
 674 046e 8091 0000 		lds r24,nibble
 675 0472 8823      		tst r24
 676 0474 01F0      		breq .L44
 677 0476 8981      		ldd r24,Y+1
 678 0478 8F5F      		subi r24,lo8(-(1))
 679 047a 8983      		std Y+1,r24
 680               	.L44:
 681 047c 8C85      		ldd r24,Y+12
 682 047e 9D85      		ldd r25,Y+13
 683 0480 2981      		ldd r18,Y+1
 684 0482 FC01      		movw r30,r24
 685 0484 2083      		st Z,r18
 686 0486 8981      		ldd r24,Y+1
 687 0488 8823      		tst r24
 688 048a 01F4      		brne .L45
 689 048c 80E0      		ldi r24,0
 690 048e 00C0      		rjmp .L31
 691               	.L45:
 692 0490 81E0      		ldi r24,lo8(1)
 693               	.L31:
 694               	/* epilogue start */
 695 0492 2D96      		adiw r28,13
 696 0494 E2E0      		ldi r30, lo8(2)
 697 0496 0C94 0000 		jmp __epilogue_restores__ + ((18 - 2) * 2)
 699               	.global	checkForRepeatedPackage
 701               	checkForRepeatedPackage:
 702 049a A4E0      		ldi r26,lo8(4)
 703 049c B0E0      		ldi r27,0
 704 049e E0E0      		ldi r30,lo8(gs(1f))
 705 04a0 F0E0      		ldi r31,hi8(gs(1f))
 706 04a2 0C94 0000 		jmp __prologue_saves__+((18 - 2) * 2)
 707               	1:
 708               	/* prologue: function */
 709               	/* frame size = 4 */
 710               	/* stack size = 6 */
 711               	.L__stack_usage = 6
 712 04a6 9A83      		std Y+2,r25
 713 04a8 8983      		std Y+1,r24
 714 04aa 7C83      		std Y+4,r23
 715 04ac 6B83      		std Y+3,r22
 716 04ae 8981      		ldd r24,Y+1
 717 04b0 9A81      		ldd r25,Y+2
 718 04b2 FC01      		movw r30,r24
 719 04b4 8081      		ld r24,Z
 720 04b6 8936      		cpi r24,lo8(105)
 721 04b8 01F0      		breq .L47
 722 04ba 8981      		ldd r24,Y+1
 723 04bc 9A81      		ldd r25,Y+2
 724 04be FC01      		movw r30,r24
 725 04c0 8081      		ld r24,Z
 726 04c2 8337      		cpi r24,lo8(115)
 727 04c4 01F4      		brne .L48
 728               	.L47:
 729 04c6 8091 0000 		lds r24,packetCheckValues
 730 04ca 8170      		andi r24,lo8(1)
 731 04cc 8823      		tst r24
 732 04ce 01F0      		breq .L49
 733 04d0 8091 0000 		lds r24,packetCheckValues
 734 04d4 8270      		andi r24,lo8(2)
 735 04d6 8823      		tst r24
 736 04d8 01F4      		brne .L49
 737 04da 8091 0000 		lds r24,packetCheckValues
 738 04de 8260      		ori r24,lo8(2)
 739 04e0 8093 0000 		sts packetCheckValues,r24
 740 04e4 8091 0000 		lds r24,packetCheckValues
 741 04e8 8460      		ori r24,lo8(4)
 742 04ea 8093 0000 		sts packetCheckValues,r24
 743 04ee 00C0      		rjmp .L50
 744               	.L49:
 745 04f0 8091 0000 		lds r24,packetCheckValues
 746 04f4 8170      		andi r24,lo8(1)
 747 04f6 8823      		tst r24
 748 04f8 01F0      		breq .L51
 749 04fa 8091 0000 		lds r24,packetCheckValues
 750 04fe 8B7F      		andi r24,lo8(-5)
 751 0500 8093 0000 		sts packetCheckValues,r24
 752 0504 00C0      		rjmp .L50
 753               	.L51:
 754 0506 8091 0000 		lds r24,packetCheckValues
 755 050a 8D7F      		andi r24,lo8(-3)
 756 050c 8093 0000 		sts packetCheckValues,r24
 757 0510 00C0      		rjmp .L46
 758               	.L50:
 759 0512 00C0      		rjmp .L46
 760               	.L48:
 761 0514 8091 0000 		lds r24,packetCheckValues
 762 0518 8170      		andi r24,lo8(1)
 763 051a 8823      		tst r24
 764 051c 01F4      		brne .L46
 765 051e 8091 0000 		lds r24,packetCheckValues
 766 0522 8460      		ori r24,lo8(4)
 767 0524 8093 0000 		sts packetCheckValues,r24
 768               	.L46:
 769               	/* epilogue start */
 770 0528 2496      		adiw r28,4
 771 052a E2E0      		ldi r30, lo8(2)
 772 052c 0C94 0000 		jmp __epilogue_restores__ + ((18 - 2) * 2)
 775               	analyseMC:
 776 0530 A9E0      		ldi r26,lo8(9)
 777 0532 B0E0      		ldi r27,0
 778 0534 E0E0      		ldi r30,lo8(gs(1f))
 779 0536 F0E0      		ldi r31,hi8(gs(1f))
 780 0538 0C94 0000 		jmp __prologue_saves__+((18 - 2) * 2)
 781               	1:
 782               	/* prologue: function */
 783               	/* frame size = 9 */
 784               	/* stack size = 11 */
 785               	.L__stack_usage = 11
 786 053c 9B83      		std Y+3,r25
 787 053e 8A83      		std Y+2,r24
 788 0540 7D83      		std Y+5,r23
 789 0542 6C83      		std Y+4,r22
 790 0544 5F83      		std Y+7,r21
 791 0546 4E83      		std Y+6,r20
 792 0548 3987      		std Y+9,r19
 793 054a 2887      		std Y+8,r18
 794 054c 8091 0000 		lds r24,frequencyMode
 795 0550 8130      		cpi r24,lo8(1)
 796 0552 01F0      		breq .+2
 797 0554 00C0      		rjmp .L53
 798 0556 8C81      		ldd r24,Y+4
 799 0558 9D81      		ldd r25,Y+5
 800 055a FC01      		movw r30,r24
 801 055c 8081      		ld r24,Z
 802 055e 8823      		tst r24
 803 0560 01F0      		breq .+2
 804 0562 00C0      		rjmp .L53
 805 0564 8A81      		ldd r24,Y+2
 806 0566 9B81      		ldd r25,Y+3
 807 0568 FC01      		movw r30,r24
 808 056a 8081      		ld r24,Z
 809 056c 8D30      		cpi r24,lo8(13)
 810 056e 01F0      		breq .+2
 811 0570 00C0      		rjmp .L53
 812 0572 1982      		std Y+1,__zero_reg__
 813 0574 00C0      		rjmp .L55
 814               	.L56:
 815 0576 8981      		ldd r24,Y+1
 816 0578 882F      		mov r24,r24
 817 057a 90E0      		ldi r25,0
 818 057c 2E81      		ldd r18,Y+6
 819 057e 3F81      		ldd r19,Y+7
 820 0580 820F      		add r24,r18
 821 0582 931F      		adc r25,r19
 822 0584 2981      		ldd r18,Y+1
 823 0586 222F      		mov r18,r18
 824 0588 30E0      		ldi r19,0
 825 058a 4A81      		ldd r20,Y+2
 826 058c 5B81      		ldd r21,Y+3
 827 058e 240F      		add r18,r20
 828 0590 351F      		adc r19,r21
 829 0592 2C5F      		subi r18,-4
 830 0594 3F4F      		sbci r19,-1
 831 0596 F901      		movw r30,r18
 832 0598 2081      		ld r18,Z
 833 059a FC01      		movw r30,r24
 834 059c 2083      		st Z,r18
 835 059e 8981      		ldd r24,Y+1
 836 05a0 8F5F      		subi r24,lo8(-(1))
 837 05a2 8983      		std Y+1,r24
 838               	.L55:
 839 05a4 8A81      		ldd r24,Y+2
 840 05a6 9B81      		ldd r25,Y+3
 841 05a8 FC01      		movw r30,r24
 842 05aa 9181      		ldd r25,Z+1
 843 05ac 8981      		ldd r24,Y+1
 844 05ae 8917      		cp r24,r25
 845 05b0 00F0      		brlo .L56
 846 05b2 8A81      		ldd r24,Y+2
 847 05b4 9B81      		ldd r25,Y+3
 848 05b6 FC01      		movw r30,r24
 849 05b8 8381      		ldd r24,Z+3
 850 05ba 8730      		cpi r24,lo8(7)
 851 05bc 01F0      		breq .L57
 852 05be 8981      		ldd r24,Y+1
 853 05c0 882F      		mov r24,r24
 854 05c2 90E0      		ldi r25,0
 855 05c4 2E81      		ldd r18,Y+6
 856 05c6 3F81      		ldd r19,Y+7
 857 05c8 820F      		add r24,r18
 858 05ca 931F      		adc r25,r19
 859 05cc 2981      		ldd r18,Y+1
 860 05ce 222F      		mov r18,r18
 861 05d0 30E0      		ldi r19,0
 862 05d2 4A81      		ldd r20,Y+2
 863 05d4 5B81      		ldd r21,Y+3
 864 05d6 240F      		add r18,r20
 865 05d8 351F      		adc r19,r21
 866 05da 2C5F      		subi r18,-4
 867 05dc 3F4F      		sbci r19,-1
 868 05de F901      		movw r30,r18
 869 05e0 2081      		ld r18,Z
 870 05e2 FC01      		movw r30,r24
 871 05e4 2083      		st Z,r18
 872 05e6 8981      		ldd r24,Y+1
 873 05e8 8F5F      		subi r24,lo8(-(1))
 874 05ea 8983      		std Y+1,r24
 875               	.L57:
 876 05ec 8885      		ldd r24,Y+8
 877 05ee 9985      		ldd r25,Y+9
 878 05f0 2981      		ldd r18,Y+1
 879 05f2 FC01      		movw r30,r24
 880 05f4 2083      		st Z,r18
 881 05f6 8C81      		ldd r24,Y+4
 882 05f8 9D81      		ldd r25,Y+5
 883 05fa 2FE6      		ldi r18,lo8(111)
 884 05fc FC01      		movw r30,r24
 885 05fe 2083      		st Z,r18
 886               	.L53:
 887               	/* epilogue start */
 888 0600 2996      		adiw r28,9
 889 0602 E2E0      		ldi r30, lo8(2)
 890 0604 0C94 0000 		jmp __epilogue_restores__ + ((18 - 2) * 2)
 892               	.global	RfAnalyze_Task
 894               	RfAnalyze_Task:
 895 0608 A9E0      		ldi r26,lo8(9)
 896 060a B0E0      		ldi r27,0
 897 060c E0E0      		ldi r30,lo8(gs(1f))
 898 060e F0E0      		ldi r31,hi8(gs(1f))
 899 0610 0C94 0000 		jmp __prologue_saves__+((18 - 6) * 2)
 900               	1:
 901               	/* prologue: function */
 902               	/* frame size = 9 */
 903               	/* stack size = 15 */
 904               	.L__stack_usage = 15
 905 0614 1886      		std Y+8,__zero_reg__
 906 0616 1986      		std Y+9,__zero_reg__
 907 0618 8091 0000 		lds r24,lowtime
 908 061c 9091 0000 		lds r25,lowtime+1
 909 0620 892B      		or r24,r25
 910 0622 01F4      		brne .+2
 911 0624 00C0      		rjmp .L59
 912 0626 8091 0000 		lds r24,tx_report
 913 062a 8823      		tst r24
 914 062c 04F4      		brge .L60
 915 062e 84E3      		ldi r24,lo8(52)
 916 0630 0E94 0000 		call cc1100_readReg
 917 0634 8983      		std Y+1,r24
 918 0636 8981      		ldd r24,Y+1
 919 0638 8058      		subi r24,lo8(-(-128))
 920 063a 8983      		std Y+1,r24
 921 063c 8981      		ldd r24,Y+1
 922 063e 8034      		cpi r24,lo8(64)
 923 0640 00F4      		brsh .L61
 924 0642 1982      		std Y+1,__zero_reg__
 925 0644 00C0      		rjmp .L62
 926               	.L61:
 927 0646 8981      		ldd r24,Y+1
 928 0648 803C      		cpi r24,lo8(-64)
 929 064a 00F0      		brlo .L63
 930 064c 8FE0      		ldi r24,lo8(15)
 931 064e 8983      		std Y+1,r24
 932 0650 00C0      		rjmp .L62
 933               	.L63:
 934 0652 8981      		ldd r24,Y+1
 935 0654 882F      		mov r24,r24
 936 0656 90E0      		ldi r25,0
 937 0658 8055      		subi r24,80
 938 065a 9109      		sbc r25,__zero_reg__
 939 065c 9595      		asr r25
 940 065e 8795      		ror r24
 941 0660 9595      		asr r25
 942 0662 8795      		ror r24
 943 0664 9595      		asr r25
 944 0666 8795      		ror r24
 945 0668 8983      		std Y+1,r24
 946               	.L62:
 947 066a 8981      		ldd r24,Y+1
 948 066c 8F59      		subi r24,lo8(-(97))
 949 066e 0E94 0000 		call display_char
 950               	.L60:
 951 0672 8091 0000 		lds r24,tx_report
 952 0676 882F      		mov r24,r24
 953 0678 90E0      		ldi r25,0
 954 067a 8870      		andi r24,8
 955 067c 9927      		clr r25
 956 067e 892B      		or r24,r25
 957 0680 01F0      		breq .L64
 958 0682 82E7      		ldi r24,lo8(114)
 959 0684 0E94 0000 		call display_char
 960 0688 8091 0000 		lds r24,tx_report
 961 068c 882F      		mov r24,r24
 962 068e 90E0      		ldi r25,0
 963 0690 8071      		andi r24,16
 964 0692 9927      		clr r25
 965 0694 892B      		or r24,r25
 966 0696 01F0      		breq .L65
 967 0698 8091 0000 		lds r24,hightime
 968 069c 9091 0000 		lds r25,hightime+1
 969 06a0 0E94 0000 		call display_char
 970               	.L65:
 971 06a4 86E6      		ldi r24,lo8(102)
 972 06a6 0E94 0000 		call display_char
 973 06aa 8091 0000 		lds r24,tx_report
 974 06ae 882F      		mov r24,r24
 975 06b0 90E0      		ldi r25,0
 976 06b2 8071      		andi r24,16
 977 06b4 9927      		clr r25
 978 06b6 892B      		or r24,r25
 979 06b8 01F0      		breq .L64
 980 06ba 8091 0000 		lds r24,lowtime
 981 06be 9091 0000 		lds r25,lowtime+1
 982 06c2 0E94 0000 		call display_char
 983               	.L64:
 984 06c6 1092 0000 		sts lowtime+1,__zero_reg__
 985 06ca 1092 0000 		sts lowtime,__zero_reg__
 986               	.L59:
 987 06ce 8091 0000 		lds r24,bucket_nrused
 988 06d2 8823      		tst r24
 989 06d4 01F4      		brne .+2
 990 06d6 00C0      		rjmp .L58
 991 06d8 85E2      		ldi r24,lo8(37)
 992 06da 90E0      		ldi r25,0
 993 06dc 25E2      		ldi r18,lo8(37)
 994 06de 30E0      		ldi r19,0
 995 06e0 F901      		movw r30,r18
 996 06e2 2081      		ld r18,Z
 997 06e4 2160      		ori r18,lo8(1)
 998 06e6 FC01      		movw r30,r24
 999 06e8 2083      		st Z,r18
 1000 06ea 8091 0000 		lds r24,bucket_out
 1001 06ee 282F      		mov r18,r24
 1002 06f0 30E0      		ldi r19,0
 1003 06f2 49E4      		ldi r20,lo8(73)
 1004 06f4 429F      		mul r20,r18
 1005 06f6 C001      		movw r24,r0
 1006 06f8 439F      		mul r20,r19
 1007 06fa 900D      		add r25,r0
 1008 06fc 1124      		clr __zero_reg__
 1009 06fe 8050      		subi r24,lo8(-(bucket_array))
 1010 0700 9040      		sbci r25,hi8(-(bucket_array))
 1011 0702 9E83      		std Y+6,r25
 1012 0704 8D83      		std Y+5,r24
 1013 0706 9E01      		movw r18,r28
 1014 0708 275F      		subi r18,-9
 1015 070a 3F4F      		sbci r19,-1
 1016 070c BE01      		movw r22,r28
 1017 070e 685F      		subi r22,-8
 1018 0710 7F4F      		sbci r23,-1
 1019 0712 8D81      		ldd r24,Y+5
 1020 0714 9E81      		ldd r25,Y+6
 1021 0716 40E0      		ldi r20,lo8(obuf)
 1022 0718 50E0      		ldi r21,hi8(obuf)
 1023 071a 0E94 0000 		call analyze_intertechno
 1024 071e 9E01      		movw r18,r28
 1025 0720 275F      		subi r18,-9
 1026 0722 3F4F      		sbci r19,-1
 1027 0724 BE01      		movw r22,r28
 1028 0726 685F      		subi r22,-8
 1029 0728 7F4F      		sbci r23,-1
 1030 072a 8D81      		ldd r24,Y+5
 1031 072c 9E81      		ldd r25,Y+6
 1032 072e 40E0      		ldi r20,lo8(obuf)
 1033 0730 50E0      		ldi r21,hi8(obuf)
 1034 0732 0E94 0000 		call analyze_tcm97001
 1035 0736 9E01      		movw r18,r28
 1036 0738 275F      		subi r18,-9
 1037 073a 3F4F      		sbci r19,-1
 1038 073c BE01      		movw r22,r28
 1039 073e 685F      		subi r22,-8
 1040 0740 7F4F      		sbci r23,-1
 1041 0742 8D81      		ldd r24,Y+5
 1042 0744 9E81      		ldd r25,Y+6
 1043 0746 40E0      		ldi r20,lo8(obuf)
 1044 0748 50E0      		ldi r21,hi8(obuf)
 1045 074a 0E94 0000 		call analyze_revolt
 1046 074e 9E01      		movw r18,r28
 1047 0750 275F      		subi r18,-9
 1048 0752 3F4F      		sbci r19,-1
 1049 0754 BE01      		movw r22,r28
 1050 0756 685F      		subi r22,-8
 1051 0758 7F4F      		sbci r23,-1
 1052 075a 8D81      		ldd r24,Y+5
 1053 075c 9E81      		ldd r25,Y+6
 1054 075e 40E0      		ldi r20,lo8(obuf)
 1055 0760 50E0      		ldi r21,hi8(obuf)
 1056 0762 0E94 0000 		call analyseMC
 1057 0766 8885      		ldd r24,Y+8
 1058 0768 8823      		tst r24
 1059 076a 01F0      		breq .+2
 1060 076c 00C0      		rjmp .L68
 1061 076e 8D81      		ldd r24,Y+5
 1062 0770 9E81      		ldd r25,Y+6
 1063 0772 FC01      		movw r30,r24
 1064 0774 8081      		ld r24,Z
 1065 0776 8B30      		cpi r24,lo8(11)
 1066 0778 01F4      		brne .L68
 1067 077a 1A82      		std Y+2,__zero_reg__
 1068 077c 00C0      		rjmp .L69
 1069               	.L70:
 1070 077e 8A81      		ldd r24,Y+2
 1071 0780 882F      		mov r24,r24
 1072 0782 90E0      		ldi r25,0
 1073 0784 2A81      		ldd r18,Y+2
 1074 0786 222F      		mov r18,r18
 1075 0788 30E0      		ldi r19,0
 1076 078a 4D81      		ldd r20,Y+5
 1077 078c 5E81      		ldd r21,Y+6
 1078 078e 240F      		add r18,r20
 1079 0790 351F      		adc r19,r21
 1080 0792 2C5F      		subi r18,-4
 1081 0794 3F4F      		sbci r19,-1
 1082 0796 F901      		movw r30,r18
 1083 0798 2081      		ld r18,Z
 1084 079a 8050      		subi r24,lo8(-(obuf))
 1085 079c 9040      		sbci r25,hi8(-(obuf))
 1086 079e FC01      		movw r30,r24
 1087 07a0 2083      		st Z,r18
 1088 07a2 8A81      		ldd r24,Y+2
 1089 07a4 8F5F      		subi r24,lo8(-(1))
 1090 07a6 8A83      		std Y+2,r24
 1091               	.L69:
 1092 07a8 8D81      		ldd r24,Y+5
 1093 07aa 9E81      		ldd r25,Y+6
 1094 07ac FC01      		movw r30,r24
 1095 07ae 9181      		ldd r25,Z+1
 1096 07b0 8A81      		ldd r24,Y+2
 1097 07b2 8917      		cp r24,r25
 1098 07b4 00F0      		brlo .L70
 1099 07b6 8D81      		ldd r24,Y+5
 1100 07b8 9E81      		ldd r25,Y+6
 1101 07ba FC01      		movw r30,r24
 1102 07bc 8381      		ldd r24,Z+3
 1103 07be 8730      		cpi r24,lo8(7)
 1104 07c0 01F0      		breq .L71
 1105 07c2 8A81      		ldd r24,Y+2
 1106 07c4 882F      		mov r24,r24
 1107 07c6 90E0      		ldi r25,0
 1108 07c8 2A81      		ldd r18,Y+2
 1109 07ca 222F      		mov r18,r18
 1110 07cc 30E0      		ldi r19,0
 1111 07ce 4D81      		ldd r20,Y+5
 1112 07d0 5E81      		ldd r21,Y+6
 1113 07d2 240F      		add r18,r20
 1114 07d4 351F      		adc r19,r21
 1115 07d6 2C5F      		subi r18,-4
 1116 07d8 3F4F      		sbci r19,-1
 1117 07da F901      		movw r30,r18
 1118 07dc 2081      		ld r18,Z
 1119 07de 8050      		subi r24,lo8(-(obuf))
 1120 07e0 9040      		sbci r25,hi8(-(obuf))
 1121 07e2 FC01      		movw r30,r24
 1122 07e4 2083      		st Z,r18
 1123 07e6 8A81      		ldd r24,Y+2
 1124 07e8 8F5F      		subi r24,lo8(-(1))
 1125 07ea 8A83      		std Y+2,r24
 1126               	.L71:
 1127 07ec 8A81      		ldd r24,Y+2
 1128 07ee 8987      		std Y+9,r24
 1129               	.L68:
 1130 07f0 8D81      		ldd r24,Y+5
 1131 07f2 9E81      		ldd r25,Y+6
 1132 07f4 FC01      		movw r30,r24
 1133 07f6 8081      		ld r24,Z
 1134 07f8 8330      		cpi r24,lo8(3)
 1135 07fa 01F0      		breq .+2
 1136 07fc 00C0      		rjmp .L72
 1137 07fe 8885      		ldd r24,Y+8
 1138 0800 8823      		tst r24
 1139 0802 01F0      		breq .+2
 1140 0804 00C0      		rjmp .L73
 1141 0806 9E01      		movw r18,r28
 1142 0808 275F      		subi r18,-9
 1143 080a 3F4F      		sbci r19,-1
 1144 080c 8D81      		ldd r24,Y+5
 1145 080e 9E81      		ldd r25,Y+6
 1146 0810 A901      		movw r20,r18
 1147 0812 66E4      		ldi r22,lo8(70)
 1148 0814 0E94 0000 		call analyze
 1149 0818 8823      		tst r24
 1150 081a 01F4      		brne .+2
 1151 081c 00C0      		rjmp .L73
 1152 081e 8985      		ldd r24,Y+9
 1153 0820 8150      		subi r24,lo8(-(-1))
 1154 0822 8987      		std Y+9,r24
 1155 0824 8985      		ldd r24,Y+9
 1156 0826 482F      		mov r20,r24
 1157 0828 60E0      		ldi r22,lo8(obuf)
 1158 082a 70E0      		ldi r23,hi8(obuf)
 1159 082c 86E0      		ldi r24,lo8(6)
 1160 082e 0E94 0000 		call cksum1
 1161 0832 8F83      		std Y+7,r24
 1162 0834 8985      		ldd r24,Y+9
 1163 0836 882F      		mov r24,r24
 1164 0838 90E0      		ldi r25,0
 1165 083a 8050      		subi r24,lo8(-(obuf))
 1166 083c 9040      		sbci r25,hi8(-(obuf))
 1167 083e FC01      		movw r30,r24
 1168 0840 9081      		ld r25,Z
 1169 0842 8F81      		ldd r24,Y+7
 1170 0844 9817      		cp r25,r24
 1171 0846 01F4      		brne .L74
 1172 0848 8985      		ldd r24,Y+9
 1173 084a 8430      		cpi r24,lo8(4)
 1174 084c 00F0      		brlo .L74
 1175 084e 86E4      		ldi r24,lo8(70)
 1176 0850 8887      		std Y+8,r24
 1177 0852 00C0      		rjmp .L73
 1178               	.L74:
 1179 0854 8F81      		ldd r24,Y+7
 1180 0856 882F      		mov r24,r24
 1181 0858 90E0      		ldi r25,0
 1182 085a 9C01      		movw r18,r24
 1183 085c 2F5F      		subi r18,-1
 1184 085e 3F4F      		sbci r19,-1
 1185 0860 8985      		ldd r24,Y+9
 1186 0862 882F      		mov r24,r24
 1187 0864 90E0      		ldi r25,0
 1188 0866 8050      		subi r24,lo8(-(obuf))
 1189 0868 9040      		sbci r25,hi8(-(obuf))
 1190 086a FC01      		movw r30,r24
 1191 086c 8081      		ld r24,Z
 1192 086e 882F      		mov r24,r24
 1193 0870 90E0      		ldi r25,0
 1194 0872 2817      		cp r18,r24
 1195 0874 3907      		cpc r19,r25
 1196 0876 01F4      		brne .L75
 1197 0878 8985      		ldd r24,Y+9
 1198 087a 8430      		cpi r24,lo8(4)
 1199 087c 00F0      		brlo .L75
 1200 087e 86E4      		ldi r24,lo8(70)
 1201 0880 8887      		std Y+8,r24
 1202 0882 8985      		ldd r24,Y+9
 1203 0884 882F      		mov r24,r24
 1204 0886 90E0      		ldi r25,0
 1205 0888 8050      		subi r24,lo8(-(obuf))
 1206 088a 9040      		sbci r25,hi8(-(obuf))
 1207 088c 2F81      		ldd r18,Y+7
 1208 088e FC01      		movw r30,r24
 1209 0890 2083      		st Z,r18
 1210 0892 00C0      		rjmp .L73
 1211               	.L75:
 1212 0894 8985      		ldd r24,Y+9
 1213 0896 482F      		mov r20,r24
 1214 0898 60E0      		ldi r22,lo8(obuf)
 1215 089a 70E0      		ldi r23,hi8(obuf)
 1216 089c 8CE0      		ldi r24,lo8(12)
 1217 089e 0E94 0000 		call cksum1
 1218 08a2 282F      		mov r18,r24
 1219 08a4 8985      		ldd r24,Y+9
 1220 08a6 882F      		mov r24,r24
 1221 08a8 90E0      		ldi r25,0
 1222 08aa 8050      		subi r24,lo8(-(obuf))
 1223 08ac 9040      		sbci r25,hi8(-(obuf))
 1224 08ae FC01      		movw r30,r24
 1225 08b0 8081      		ld r24,Z
 1226 08b2 2817      		cp r18,r24
 1227 08b4 01F4      		brne .L76
 1228 08b6 8985      		ldd r24,Y+9
 1229 08b8 8430      		cpi r24,lo8(4)
 1230 08ba 00F0      		brlo .L76
 1231 08bc 84E5      		ldi r24,lo8(84)
 1232 08be 8887      		std Y+8,r24
 1233 08c0 00C0      		rjmp .L73
 1234               	.L76:
 1235 08c2 1886      		std Y+8,__zero_reg__
 1236               	.L73:
 1237 08c4 8091 0000 		lds r24,frequencyMode
 1238 08c8 8230      		cpi r24,lo8(2)
 1239 08ca 01F4      		brne .L77
 1240 08cc 8885      		ldd r24,Y+8
 1241 08ce 8823      		tst r24
 1242 08d0 01F4      		brne .L77
 1243 08d2 9E01      		movw r18,r28
 1244 08d4 275F      		subi r18,-9
 1245 08d6 3F4F      		sbci r19,-1
 1246 08d8 8D81      		ldd r24,Y+5
 1247 08da 9E81      		ldd r25,Y+6
 1248 08dc A901      		movw r20,r18
 1249 08de 65E4      		ldi r22,lo8(69)
 1250 08e0 0E94 0000 		call analyze
 1251 08e4 8823      		tst r24
 1252 08e6 01F0      		breq .L77
 1253 08e8 8985      		ldd r24,Y+9
 1254 08ea 8150      		subi r24,lo8(-(-1))
 1255 08ec 8987      		std Y+9,r24
 1256 08ee 8985      		ldd r24,Y+9
 1257 08f0 8930      		cpi r24,lo8(9)
 1258 08f2 01F4      		brne .L77
 1259 08f4 8985      		ldd r24,Y+9
 1260 08f6 682F      		mov r22,r24
 1261 08f8 80E0      		ldi r24,lo8(obuf)
 1262 08fa 90E0      		ldi r25,hi8(obuf)
 1263 08fc 0E94 0000 		call cksum2
 1264 0900 282F      		mov r18,r24
 1265 0902 8985      		ldd r24,Y+9
 1266 0904 882F      		mov r24,r24
 1267 0906 90E0      		ldi r25,0
 1268 0908 8050      		subi r24,lo8(-(obuf))
 1269 090a 9040      		sbci r25,hi8(-(obuf))
 1270 090c FC01      		movw r30,r24
 1271 090e 8081      		ld r24,Z
 1272 0910 2817      		cp r18,r24
 1273 0912 01F4      		brne .L77
 1274 0914 85E4      		ldi r24,lo8(69)
 1275 0916 8887      		std Y+8,r24
 1276               	.L77:
 1277 0918 9E01      		movw r18,r28
 1278 091a 275F      		subi r18,-9
 1279 091c 3F4F      		sbci r19,-1
 1280 091e BE01      		movw r22,r28
 1281 0920 685F      		subi r22,-8
 1282 0922 7F4F      		sbci r23,-1
 1283 0924 8D81      		ldd r24,Y+5
 1284 0926 9E81      		ldd r25,Y+6
 1285 0928 40E0      		ldi r20,lo8(obuf)
 1286 092a 50E0      		ldi r21,hi8(obuf)
 1287 092c 0E94 0000 		call analyze_tx3
 1288 0930 8885      		ldd r24,Y+8
 1289 0932 8823      		tst r24
 1290 0934 01F0      		breq .+2
 1291 0936 00C0      		rjmp .L72
 1292 0938 8D81      		ldd r24,Y+5
 1293 093a 9E81      		ldd r25,Y+6
 1294 093c FC01      		movw r30,r24
 1295 093e 2081      		ld r18,Z
 1296 0940 8D81      		ldd r24,Y+5
 1297 0942 9E81      		ldd r25,Y+6
 1298 0944 FC01      		movw r30,r24
 1299 0946 85AD      		ldd r24,Z+61
 1300 0948 96AD      		ldd r25,Z+62
 1301 094a 482F      		mov r20,r24
 1302 094c 8091 0000 		lds r24,hightime
 1303 0950 9091 0000 		lds r25,hightime+1
 1304 0954 382F      		mov r19,r24
 1305 0956 8D81      		ldd r24,Y+5
 1306 0958 9E81      		ldd r25,Y+6
 1307 095a CB96      		adiw r24,59
 1308 095c 632F      		mov r22,r19
 1309 095e 0E94 0000 		call wave_equals
 1310 0962 282F      		mov r18,r24
 1311 0964 8D81      		ldd r24,Y+5
 1312 0966 9E81      		ldd r25,Y+6
 1313 0968 622F      		mov r22,r18
 1314 096a 0E94 0000 		call addbit
 1315 096e 9E01      		movw r18,r28
 1316 0970 275F      		subi r18,-9
 1317 0972 3F4F      		sbci r19,-1
 1318 0974 8D81      		ldd r24,Y+5
 1319 0976 9E81      		ldd r25,Y+6
 1320 0978 A901      		movw r20,r18
 1321 097a 6BE4      		ldi r22,lo8(75)
 1322 097c 0E94 0000 		call analyze
 1323 0980 8823      		tst r24
 1324 0982 01F0      		breq .L78
 1325 0984 8985      		ldd r24,Y+9
 1326 0986 8150      		subi r24,lo8(-(-1))
 1327 0988 8987      		std Y+9,r24
 1328 098a 8985      		ldd r24,Y+9
 1329 098c 682F      		mov r22,r24
 1330 098e 80E0      		ldi r24,lo8(obuf)
 1331 0990 90E0      		ldi r25,hi8(obuf)
 1332 0992 0E94 0000 		call cksum3
 1333 0996 482F      		mov r20,r24
 1334 0998 8985      		ldd r24,Y+9
 1335 099a 282F      		mov r18,r24
 1336 099c 30E0      		ldi r19,0
 1337 099e 8091 0000 		lds r24,nibble
 1338 09a2 882F      		mov r24,r24
 1339 09a4 90E0      		ldi r25,0
 1340 09a6 7901      		movw r14,r18
 1341 09a8 E81A      		sub r14,r24
 1342 09aa F90A      		sbc r15,r25
 1343 09ac C701      		movw r24,r14
 1344 09ae 8050      		subi r24,lo8(-(obuf))
 1345 09b0 9040      		sbci r25,hi8(-(obuf))
 1346 09b2 FC01      		movw r30,r24
 1347 09b4 8081      		ld r24,Z
 1348 09b6 4817      		cp r20,r24
 1349 09b8 01F4      		brne .L78
 1350 09ba 8BE4      		ldi r24,lo8(75)
 1351 09bc 8887      		std Y+8,r24
 1352               	.L78:
 1353 09be 8885      		ldd r24,Y+8
 1354 09c0 8823      		tst r24
 1355 09c2 01F4      		brne .L72
 1356 09c4 8D81      		ldd r24,Y+5
 1357 09c6 9E81      		ldd r25,Y+6
 1358 09c8 0E94 0000 		call delbit
 1359               	.L72:
 1360 09cc 8885      		ldd r24,Y+8
 1361 09ce 8823      		tst r24
 1362 09d0 01F4      		brne .+2
 1363 09d2 00C0      		rjmp .L79
 1364 09d4 8091 0000 		lds r24,tx_report
 1365 09d8 882F      		mov r24,r24
 1366 09da 90E0      		ldi r25,0
 1367 09dc 8170      		andi r24,1
 1368 09de 9927      		clr r25
 1369 09e0 892B      		or r24,r25
 1370 09e2 01F4      		brne .+2
 1371 09e4 00C0      		rjmp .L79
 1372 09e6 8091 0000 		lds r24,packetCheckValues
 1373 09ea 8E7F      		andi r24,lo8(-2)
 1374 09ec 8093 0000 		sts packetCheckValues,r24
 1375 09f0 8091 0000 		lds r24,packetCheckValues
 1376 09f4 8B7F      		andi r24,lo8(-5)
 1377 09f6 8093 0000 		sts packetCheckValues,r24
 1378 09fa 8091 0000 		lds r24,tx_report
 1379 09fe 882F      		mov r24,r24
 1380 0a00 90E0      		ldi r25,0
 1381 0a02 8270      		andi r24,2
 1382 0a04 9927      		clr r25
 1383 0a06 892B      		or r24,r25
 1384 0a08 01F0      		breq .+2
 1385 0a0a 00C0      		rjmp .L80
 1386 0a0c 9091 0000 		lds r25,roby
 1387 0a10 8985      		ldd r24,Y+9
 1388 0a12 9817      		cp r25,r24
 1389 0a14 01F0      		breq .+2
 1390 0a16 00C0      		rjmp .L81
 1391 0a18 1092 0000 		sts roby,__zero_reg__
 1392 0a1c 00C0      		rjmp .L82
 1393               	.L85:
 1394 0a1e 8091 0000 		lds r24,roby
 1395 0a22 882F      		mov r24,r24
 1396 0a24 90E0      		ldi r25,0
 1397 0a26 8050      		subi r24,lo8(-(robuf))
 1398 0a28 9040      		sbci r25,hi8(-(robuf))
 1399 0a2a FC01      		movw r30,r24
 1400 0a2c 2081      		ld r18,Z
 1401 0a2e 8091 0000 		lds r24,roby
 1402 0a32 882F      		mov r24,r24
 1403 0a34 90E0      		ldi r25,0
 1404 0a36 8050      		subi r24,lo8(-(obuf))
 1405 0a38 9040      		sbci r25,hi8(-(obuf))
 1406 0a3a FC01      		movw r30,r24
 1407 0a3c 8081      		ld r24,Z
 1408 0a3e 2817      		cp r18,r24
 1409 0a40 01F0      		breq .L83
 1410 0a42 8091 0000 		lds r24,packetCheckValues
 1411 0a46 8D7F      		andi r24,lo8(-3)
 1412 0a48 8093 0000 		sts packetCheckValues,r24
 1413 0a4c 00C0      		rjmp .L84
 1414               	.L83:
 1415 0a4e 8091 0000 		lds r24,roby
 1416 0a52 8F5F      		subi r24,lo8(-(1))
 1417 0a54 8093 0000 		sts roby,r24
 1418               	.L82:
 1419 0a58 9091 0000 		lds r25,roby
 1420 0a5c 8985      		ldd r24,Y+9
 1421 0a5e 9817      		cp r25,r24
 1422 0a60 00F0      		brlo .L85
 1423               	.L84:
 1424 0a62 9091 0000 		lds r25,roby
 1425 0a66 8985      		ldd r24,Y+9
 1426 0a68 9817      		cp r25,r24
 1427 0a6a 01F4      		brne .L81
 1428 0a6c 2091 0000 		lds r18,ticks
 1429 0a70 3091 0000 		lds r19,ticks+1
 1430 0a74 4091 0000 		lds r20,ticks+2
 1431 0a78 5091 0000 		lds r21,ticks+3
 1432 0a7c 8091 0000 		lds r24,reptime
 1433 0a80 9091 0000 		lds r25,reptime+1
 1434 0a84 A091 0000 		lds r26,reptime+2
 1435 0a88 B091 0000 		lds r27,reptime+3
 1436 0a8c 7901      		movw r14,r18
 1437 0a8e 8A01      		movw r16,r20
 1438 0a90 E81A      		sub r14,r24
 1439 0a92 F90A      		sbc r15,r25
 1440 0a94 0A0B      		sbc r16,r26
 1441 0a96 1B0B      		sbc r17,r27
 1442 0a98 D801      		movw r26,r16
 1443 0a9a C701      		movw r24,r14
 1444 0a9c 8697      		sbiw r24,38
 1445 0a9e A105      		cpc r26,__zero_reg__
 1446 0aa0 B105      		cpc r27,__zero_reg__
 1447 0aa2 00F4      		brsh .L81
 1448 0aa4 8091 0000 		lds r24,packetCheckValues
 1449 0aa8 8160      		ori r24,lo8(1)
 1450 0aaa 8093 0000 		sts packetCheckValues,r24
 1451               	.L81:
 1452 0aae 1092 0000 		sts roby,__zero_reg__
 1453 0ab2 00C0      		rjmp .L86
 1454               	.L87:
 1455 0ab4 8091 0000 		lds r24,roby
 1456 0ab8 882F      		mov r24,r24
 1457 0aba 90E0      		ldi r25,0
 1458 0abc 2091 0000 		lds r18,roby
 1459 0ac0 222F      		mov r18,r18
 1460 0ac2 30E0      		ldi r19,0
 1461 0ac4 2050      		subi r18,lo8(-(obuf))
 1462 0ac6 3040      		sbci r19,hi8(-(obuf))
 1463 0ac8 F901      		movw r30,r18
 1464 0aca 2081      		ld r18,Z
 1465 0acc 8050      		subi r24,lo8(-(robuf))
 1466 0ace 9040      		sbci r25,hi8(-(robuf))
 1467 0ad0 FC01      		movw r30,r24
 1468 0ad2 2083      		st Z,r18
 1469 0ad4 8091 0000 		lds r24,roby
 1470 0ad8 8F5F      		subi r24,lo8(-(1))
 1471 0ada 8093 0000 		sts roby,r24
 1472               	.L86:
 1473 0ade 9091 0000 		lds r25,roby
 1474 0ae2 8985      		ldd r24,Y+9
 1475 0ae4 9817      		cp r25,r24
 1476 0ae6 00F0      		brlo .L87
 1477 0ae8 8091 0000 		lds r24,ticks
 1478 0aec 9091 0000 		lds r25,ticks+1
 1479 0af0 A091 0000 		lds r26,ticks+2
 1480 0af4 B091 0000 		lds r27,ticks+3
 1481 0af8 8093 0000 		sts reptime,r24
 1482 0afc 9093 0000 		sts reptime+1,r25
 1483 0b00 A093 0000 		sts reptime+2,r26
 1484 0b04 B093 0000 		sts reptime+3,r27
 1485               	.L80:
 1486 0b08 8885      		ldd r24,Y+8
 1487 0b0a 8435      		cpi r24,lo8(84)
 1488 0b0c 01F4      		brne .L88
 1489 0b0e 8091 0000 		lds r24,tx_report
 1490 0b12 882F      		mov r24,r24
 1491 0b14 90E0      		ldi r25,0
 1492 0b16 8074      		andi r24,64
 1493 0b18 9927      		clr r25
 1494 0b1a 892B      		or r24,r25
 1495 0b1c 01F4      		brne .L88
 1496 0b1e 8985      		ldd r24,Y+9
 1497 0b20 8530      		cpi r24,lo8(5)
 1498 0b22 00F0      		brlo .L88
 1499 0b24 8091 0000 		lds r24,obuf+2
 1500 0b28 8B34      		cpi r24,lo8(75)
 1501 0b2a 01F0      		breq .L89
 1502 0b2c 8091 0000 		lds r24,obuf+2
 1503 0b30 8936      		cpi r24,lo8(105)
 1504 0b32 01F0      		breq .L89
 1505 0b34 8091 0000 		lds r24,obuf+2
 1506 0b38 8335      		cpi r24,lo8(83)
 1507 0b3a 01F0      		breq .L89
 1508 0b3c 8091 0000 		lds r24,obuf+2
 1509 0b40 8435      		cpi r24,lo8(84)
 1510 0b42 01F0      		breq .L89
 1511 0b44 8091 0000 		lds r24,obuf+2
 1512 0b48 8D37      		cpi r24,lo8(125)
 1513 0b4a 01F0      		breq .L89
 1514 0b4c 8091 0000 		lds r24,obuf+2
 1515 0b50 8E37      		cpi r24,lo8(126)
 1516 0b52 01F0      		breq .L89
 1517 0b54 8091 0000 		lds r24,obuf+3
 1518 0b58 882F      		mov r24,r24
 1519 0b5a 90E0      		ldi r25,0
 1520 0b5c 8077      		andi r24,112
 1521 0b5e 9927      		clr r25
 1522 0b60 8037      		cpi r24,112
 1523 0b62 9105      		cpc r25,__zero_reg__
 1524 0b64 01F4      		brne .L88
 1525               	.L89:
 1526 0b66 8091 0000 		lds r24,packetCheckValues
 1527 0b6a 8160      		ori r24,lo8(1)
 1528 0b6c 8093 0000 		sts packetCheckValues,r24
 1529               	.L88:
 1530 0b70 2D81      		ldd r18,Y+5
 1531 0b72 3E81      		ldd r19,Y+6
 1532 0b74 CE01      		movw r24,r28
 1533 0b76 0896      		adiw r24,8
 1534 0b78 B901      		movw r22,r18
 1535 0b7a 0E94 0000 		call checkForRepeatedPackage
 1536 0b7e 8091 0000 		lds r24,packetCheckValues
 1537 0b82 8470      		andi r24,lo8(4)
 1538 0b84 8823      		tst r24
 1539 0b86 01F4      		brne .+2
 1540 0b88 00C0      		rjmp .L79
 1541 0b8a 8885      		ldd r24,Y+8
 1542 0b8c 0E94 0000 		call display_char
 1543 0b90 8D81      		ldd r24,Y+5
 1544 0b92 9E81      		ldd r25,Y+6
 1545 0b94 FC01      		movw r30,r24
 1546 0b96 8081      		ld r24,Z
 1547 0b98 8A30      		cpi r24,lo8(10)
 1548 0b9a 01F4      		brne .L90
 1549 0b9c 88E6      		ldi r24,lo8(104)
 1550 0b9e 0E94 0000 		call display_char
 1551               	.L90:
 1552 0ba2 8D81      		ldd r24,Y+5
 1553 0ba4 9E81      		ldd r25,Y+6
 1554 0ba6 FC01      		movw r30,r24
 1555 0ba8 8081      		ld r24,Z
 1556 0baa 8D30      		cpi r24,lo8(13)
 1557 0bac 01F4      		brne .L91
 1558 0bae 8DE6      		ldi r24,lo8(109)
 1559 0bb0 0E94 0000 		call display_char
 1560               	.L91:
 1561 0bb4 8091 0000 		lds r24,nibble
 1562 0bb8 8823      		tst r24
 1563 0bba 01F0      		breq .L92
 1564 0bbc 8985      		ldd r24,Y+9
 1565 0bbe 8150      		subi r24,lo8(-(-1))
 1566 0bc0 8987      		std Y+9,r24
 1567               	.L92:
 1568 0bc2 1B82      		std Y+3,__zero_reg__
 1569 0bc4 00C0      		rjmp .L93
 1570               	.L94:
 1571 0bc6 8B81      		ldd r24,Y+3
 1572 0bc8 882F      		mov r24,r24
 1573 0bca 90E0      		ldi r25,0
 1574 0bcc 8050      		subi r24,lo8(-(obuf))
 1575 0bce 9040      		sbci r25,hi8(-(obuf))
 1576 0bd0 FC01      		movw r30,r24
 1577 0bd2 8081      		ld r24,Z
 1578 0bd4 0E94 0000 		call display_hex2
 1579 0bd8 8B81      		ldd r24,Y+3
 1580 0bda 8F5F      		subi r24,lo8(-(1))
 1581 0bdc 8B83      		std Y+3,r24
 1582               	.L93:
 1583 0bde 8985      		ldd r24,Y+9
 1584 0be0 9B81      		ldd r25,Y+3
 1585 0be2 9817      		cp r25,r24
 1586 0be4 00F0      		brlo .L94
 1587 0be6 8091 0000 		lds r24,nibble
 1588 0bea 8823      		tst r24
 1589 0bec 01F0      		breq .L95
 1590 0bee 8985      		ldd r24,Y+9
 1591 0bf0 882F      		mov r24,r24
 1592 0bf2 90E0      		ldi r25,0
 1593 0bf4 8050      		subi r24,lo8(-(obuf))
 1594 0bf6 9040      		sbci r25,hi8(-(obuf))
 1595 0bf8 FC01      		movw r30,r24
 1596 0bfa 8081      		ld r24,Z
 1597 0bfc 882F      		mov r24,r24
 1598 0bfe 90E0      		ldi r25,0
 1599 0c00 8F70      		andi r24,15
 1600 0c02 9927      		clr r25
 1601 0c04 40E3      		ldi r20,lo8(48)
 1602 0c06 61E0      		ldi r22,lo8(1)
 1603 0c08 0E94 0000 		call display_hex
 1604               	.L95:
 1605 0c0c 8091 0000 		lds r24,tx_report
 1606 0c10 882F      		mov r24,r24
 1607 0c12 90E0      		ldi r25,0
 1608 0c14 8072      		andi r24,32
 1609 0c16 9927      		clr r25
 1610 0c18 892B      		or r24,r25
 1611 0c1a 01F0      		breq .L96
 1612 0c1c 84E3      		ldi r24,lo8(52)
 1613 0c1e 0E94 0000 		call cc1100_readReg
 1614 0c22 0E94 0000 		call display_hex2
 1615               	.L96:
 1616 0c26 8D81      		ldd r24,Y+5
 1617 0c28 9E81      		ldd r25,Y+6
 1618 0c2a FC01      		movw r30,r24
 1619 0c2c 8081      		ld r24,Z
 1620 0c2e 8830      		cpi r24,lo8(8)
 1621 0c30 01F4      		brne .L97
 1622 0c32 8BE3      		ldi r24,lo8(59)
 1623 0c34 0E94 0000 		call display_char
 1624 0c38 8D81      		ldd r24,Y+5
 1625 0c3a 9E81      		ldd r25,Y+6
 1626 0c3c 8D5B      		subi r24,-67
 1627 0c3e 9F4F      		sbci r25,-1
 1628 0c40 FC01      		movw r30,r24
 1629 0c42 8081      		ld r24,Z
 1630 0c44 9181      		ldd r25,Z+1
 1631 0c46 8295      		swap r24
 1632 0c48 9295      		swap r25
 1633 0c4a 907F      		andi r25,0xf0
 1634 0c4c 9827      		eor r25,r24
 1635 0c4e 807F      		andi r24,0xf0
 1636 0c50 9827      		eor r25,r24
 1637 0c52 40E2      		ldi r20,lo8(32)
 1638 0c54 65E0      		ldi r22,lo8(5)
 1639 0c56 0E94 0000 		call display_udec
 1640 0c5a 8AE3      		ldi r24,lo8(58)
 1641 0c5c 0E94 0000 		call display_char
 1642 0c60 8D81      		ldd r24,Y+5
 1643 0c62 9E81      		ldd r25,Y+6
 1644 0c64 8B5B      		subi r24,-69
 1645 0c66 9F4F      		sbci r25,-1
 1646 0c68 FC01      		movw r30,r24
 1647 0c6a 8081      		ld r24,Z
 1648 0c6c 9181      		ldd r25,Z+1
 1649 0c6e 8295      		swap r24
 1650 0c70 9295      		swap r25
 1651 0c72 907F      		andi r25,0xf0
 1652 0c74 9827      		eor r25,r24
 1653 0c76 807F      		andi r24,0xf0
 1654 0c78 9827      		eor r25,r24
 1655 0c7a 40E2      		ldi r20,lo8(32)
 1656 0c7c 65E0      		ldi r22,lo8(5)
 1657 0c7e 0E94 0000 		call display_udec
 1658               	.L97:
 1659 0c82 0E94 0000 		call display_nl
 1660               	.L79:
 1661 0c86 8091 0000 		lds r24,tx_report
 1662 0c8a 882F      		mov r24,r24
 1663 0c8c 90E0      		ldi r25,0
 1664 0c8e 8470      		andi r24,4
 1665 0c90 9927      		clr r25
 1666 0c92 892B      		or r24,r25
 1667 0c94 01F4      		brne .+2
 1668 0c96 00C0      		rjmp .L98
 1669 0c98 80E7      		ldi r24,lo8(112)
 1670 0c9a 0E94 0000 		call display_char
 1671 0c9e 8D81      		ldd r24,Y+5
 1672 0ca0 9E81      		ldd r25,Y+6
 1673 0ca2 FC01      		movw r30,r24
 1674 0ca4 8081      		ld r24,Z
 1675 0ca6 882F      		mov r24,r24
 1676 0ca8 90E0      		ldi r25,0
 1677 0caa 40E2      		ldi r20,lo8(32)
 1678 0cac 62E0      		ldi r22,lo8(2)
 1679 0cae 0E94 0000 		call display_udec
 1680 0cb2 8D81      		ldd r24,Y+5
 1681 0cb4 9E81      		ldd r25,Y+6
 1682 0cb6 FC01      		movw r30,r24
 1683 0cb8 87A9      		ldd r24,Z+55
 1684 0cba 90AD      		ldd r25,Z+56
 1685 0cbc 8295      		swap r24
 1686 0cbe 9295      		swap r25
 1687 0cc0 907F      		andi r25,0xf0
 1688 0cc2 9827      		eor r25,r24
 1689 0cc4 807F      		andi r24,0xf0
 1690 0cc6 9827      		eor r25,r24
 1691 0cc8 40E2      		ldi r20,lo8(32)
 1692 0cca 65E0      		ldi r22,lo8(5)
 1693 0ccc 0E94 0000 		call display_udec
 1694 0cd0 8D81      		ldd r24,Y+5
 1695 0cd2 9E81      		ldd r25,Y+6
 1696 0cd4 FC01      		movw r30,r24
 1697 0cd6 81AD      		ldd r24,Z+57
 1698 0cd8 92AD      		ldd r25,Z+58
 1699 0cda 8295      		swap r24
 1700 0cdc 9295      		swap r25
 1701 0cde 907F      		andi r25,0xf0
 1702 0ce0 9827      		eor r25,r24
 1703 0ce2 807F      		andi r24,0xf0
 1704 0ce4 9827      		eor r25,r24
 1705 0ce6 40E2      		ldi r20,lo8(32)
 1706 0ce8 65E0      		ldi r22,lo8(5)
 1707 0cea 0E94 0000 		call display_udec
 1708 0cee 8D81      		ldd r24,Y+5
 1709 0cf0 9E81      		ldd r25,Y+6
 1710 0cf2 FC01      		movw r30,r24
 1711 0cf4 83AD      		ldd r24,Z+59
 1712 0cf6 94AD      		ldd r25,Z+60
 1713 0cf8 8295      		swap r24
 1714 0cfa 9295      		swap r25
 1715 0cfc 907F      		andi r25,0xf0
 1716 0cfe 9827      		eor r25,r24
 1717 0d00 807F      		andi r24,0xf0
 1718 0d02 9827      		eor r25,r24
 1719 0d04 40E2      		ldi r20,lo8(32)
 1720 0d06 65E0      		ldi r22,lo8(5)
 1721 0d08 0E94 0000 		call display_udec
 1722 0d0c 8D81      		ldd r24,Y+5
 1723 0d0e 9E81      		ldd r25,Y+6
 1724 0d10 FC01      		movw r30,r24
 1725 0d12 85AD      		ldd r24,Z+61
 1726 0d14 96AD      		ldd r25,Z+62
 1727 0d16 8295      		swap r24
 1728 0d18 9295      		swap r25
 1729 0d1a 907F      		andi r25,0xf0
 1730 0d1c 9827      		eor r25,r24
 1731 0d1e 807F      		andi r24,0xf0
 1732 0d20 9827      		eor r25,r24
 1733 0d22 40E2      		ldi r20,lo8(32)
 1734 0d24 65E0      		ldi r22,lo8(5)
 1735 0d26 0E94 0000 		call display_udec
 1736 0d2a 8D81      		ldd r24,Y+5
 1737 0d2c 9E81      		ldd r25,Y+6
 1738 0d2e CF96      		adiw r24,63
 1739 0d30 FC01      		movw r30,r24
 1740 0d32 8081      		ld r24,Z
 1741 0d34 9181      		ldd r25,Z+1
 1742 0d36 8295      		swap r24
 1743 0d38 9295      		swap r25
 1744 0d3a 907F      		andi r25,0xf0
 1745 0d3c 9827      		eor r25,r24
 1746 0d3e 807F      		andi r24,0xf0
 1747 0d40 9827      		eor r25,r24
 1748 0d42 40E2      		ldi r20,lo8(32)
 1749 0d44 65E0      		ldi r22,lo8(5)
 1750 0d46 0E94 0000 		call display_udec
 1751 0d4a 8D81      		ldd r24,Y+5
 1752 0d4c 9E81      		ldd r25,Y+6
 1753 0d4e 8F5B      		subi r24,-65
 1754 0d50 9F4F      		sbci r25,-1
 1755 0d52 FC01      		movw r30,r24
 1756 0d54 8081      		ld r24,Z
 1757 0d56 9181      		ldd r25,Z+1
 1758 0d58 8295      		swap r24
 1759 0d5a 9295      		swap r25
 1760 0d5c 907F      		andi r25,0xf0
 1761 0d5e 9827      		eor r25,r24
 1762 0d60 807F      		andi r24,0xf0
 1763 0d62 9827      		eor r25,r24
 1764 0d64 40E2      		ldi r20,lo8(32)
 1765 0d66 65E0      		ldi r22,lo8(5)
 1766 0d68 0E94 0000 		call display_udec
 1767 0d6c 8D81      		ldd r24,Y+5
 1768 0d6e 9E81      		ldd r25,Y+6
 1769 0d70 FC01      		movw r30,r24
 1770 0d72 86A9      		ldd r24,Z+54
 1771 0d74 882F      		mov r24,r24
 1772 0d76 90E0      		ldi r25,0
 1773 0d78 40E2      		ldi r20,lo8(32)
 1774 0d7a 64E0      		ldi r22,lo8(4)
 1775 0d7c 0E94 0000 		call display_udec
 1776 0d80 8D81      		ldd r24,Y+5
 1777 0d82 9E81      		ldd r25,Y+6
 1778 0d84 FC01      		movw r30,r24
 1779 0d86 8281      		ldd r24,Z+2
 1780 0d88 882F      		mov r24,r24
 1781 0d8a 90E0      		ldi r25,0
 1782 0d8c 40E2      		ldi r20,lo8(32)
 1783 0d8e 63E0      		ldi r22,lo8(3)
 1784 0d90 0E94 0000 		call display_udec
 1785 0d94 8D81      		ldd r24,Y+5
 1786 0d96 9E81      		ldd r25,Y+6
 1787 0d98 FC01      		movw r30,r24
 1788 0d9a 8181      		ldd r24,Z+1
 1789 0d9c 882F      		mov r24,r24
 1790 0d9e 90E0      		ldi r25,0
 1791 0da0 40E2      		ldi r20,lo8(32)
 1792 0da2 63E0      		ldi r22,lo8(3)
 1793 0da4 0E94 0000 		call display_udec
 1794 0da8 8D81      		ldd r24,Y+5
 1795 0daa 9E81      		ldd r25,Y+6
 1796 0dac FC01      		movw r30,r24
 1797 0dae 8381      		ldd r24,Z+3
 1798 0db0 882F      		mov r24,r24
 1799 0db2 90E0      		ldi r25,0
 1800 0db4 27E0      		ldi r18,lo8(7)
 1801 0db6 30E0      		ldi r19,0
 1802 0db8 7901      		movw r14,r18
 1803 0dba E81A      		sub r14,r24
 1804 0dbc F90A      		sbc r15,r25
 1805 0dbe C701      		movw r24,r14
 1806 0dc0 40E2      		ldi r20,lo8(32)
 1807 0dc2 62E0      		ldi r22,lo8(2)
 1808 0dc4 0E94 0000 		call display_udec
 1809 0dc8 80E2      		ldi r24,lo8(32)
 1810 0dca 0E94 0000 		call display_char
 1811 0dce 8D81      		ldd r24,Y+5
 1812 0dd0 9E81      		ldd r25,Y+6
 1813 0dd2 8D5B      		subi r24,-67
 1814 0dd4 9F4F      		sbci r25,-1
 1815 0dd6 FC01      		movw r30,r24
 1816 0dd8 8081      		ld r24,Z
 1817 0dda 9181      		ldd r25,Z+1
 1818 0ddc 8295      		swap r24
 1819 0dde 9295      		swap r25
 1820 0de0 907F      		andi r25,0xf0
 1821 0de2 9827      		eor r25,r24
 1822 0de4 807F      		andi r24,0xf0
 1823 0de6 9827      		eor r25,r24
 1824 0de8 40E2      		ldi r20,lo8(32)
 1825 0dea 65E0      		ldi r22,lo8(5)
 1826 0dec 0E94 0000 		call display_udec
 1827 0df0 80E2      		ldi r24,lo8(32)
 1828 0df2 0E94 0000 		call display_char
 1829 0df6 8D81      		ldd r24,Y+5
 1830 0df8 9E81      		ldd r25,Y+6
 1831 0dfa 8B5B      		subi r24,-69
 1832 0dfc 9F4F      		sbci r25,-1
 1833 0dfe FC01      		movw r30,r24
 1834 0e00 8081      		ld r24,Z
 1835 0e02 9181      		ldd r25,Z+1
 1836 0e04 8295      		swap r24
 1837 0e06 9295      		swap r25
 1838 0e08 907F      		andi r25,0xf0
 1839 0e0a 9827      		eor r25,r24
 1840 0e0c 807F      		andi r24,0xf0
 1841 0e0e 9827      		eor r25,r24
 1842 0e10 40E2      		ldi r20,lo8(32)
 1843 0e12 65E0      		ldi r22,lo8(5)
 1844 0e14 0E94 0000 		call display_udec
 1845 0e18 80E2      		ldi r24,lo8(32)
 1846 0e1a 0E94 0000 		call display_char
 1847 0e1e 8D81      		ldd r24,Y+5
 1848 0e20 9E81      		ldd r25,Y+6
 1849 0e22 895B      		subi r24,-71
 1850 0e24 9F4F      		sbci r25,-1
 1851 0e26 FC01      		movw r30,r24
 1852 0e28 8081      		ld r24,Z
 1853 0e2a 9181      		ldd r25,Z+1
 1854 0e2c 8295      		swap r24
 1855 0e2e 9295      		swap r25
 1856 0e30 907F      		andi r25,0xf0
 1857 0e32 9827      		eor r25,r24
 1858 0e34 807F      		andi r24,0xf0
 1859 0e36 9827      		eor r25,r24
 1860 0e38 40E2      		ldi r20,lo8(32)
 1861 0e3a 65E0      		ldi r22,lo8(5)
 1862 0e3c 0E94 0000 		call display_udec
 1863 0e40 80E2      		ldi r24,lo8(32)
 1864 0e42 0E94 0000 		call display_char
 1865 0e46 8091 0000 		lds r24,tx_report
 1866 0e4a 882F      		mov r24,r24
 1867 0e4c 90E0      		ldi r25,0
 1868 0e4e 8072      		andi r24,32
 1869 0e50 9927      		clr r25
 1870 0e52 892B      		or r24,r25
 1871 0e54 01F0      		breq .L99
 1872 0e56 84E3      		ldi r24,lo8(52)
 1873 0e58 0E94 0000 		call cc1100_readReg
 1874 0e5c 0E94 0000 		call display_hex2
 1875 0e60 80E2      		ldi r24,lo8(32)
 1876 0e62 0E94 0000 		call display_char
 1877               	.L99:
 1878 0e66 8D81      		ldd r24,Y+5
 1879 0e68 9E81      		ldd r25,Y+6
 1880 0e6a FC01      		movw r30,r24
 1881 0e6c 8381      		ldd r24,Z+3
 1882 0e6e 8730      		cpi r24,lo8(7)
 1883 0e70 01F0      		breq .L100
 1884 0e72 8D81      		ldd r24,Y+5
 1885 0e74 9E81      		ldd r25,Y+6
 1886 0e76 FC01      		movw r30,r24
 1887 0e78 8181      		ldd r24,Z+1
 1888 0e7a 21E0      		ldi r18,lo8(1)
 1889 0e7c 280F      		add r18,r24
 1890 0e7e 8D81      		ldd r24,Y+5
 1891 0e80 9E81      		ldd r25,Y+6
 1892 0e82 FC01      		movw r30,r24
 1893 0e84 2183      		std Z+1,r18
 1894               	.L100:
 1895 0e86 1C82      		std Y+4,__zero_reg__
 1896 0e88 00C0      		rjmp .L101
 1897               	.L102:
 1898 0e8a 8C81      		ldd r24,Y+4
 1899 0e8c 882F      		mov r24,r24
 1900 0e8e 90E0      		ldi r25,0
 1901 0e90 2D81      		ldd r18,Y+5
 1902 0e92 3E81      		ldd r19,Y+6
 1903 0e94 820F      		add r24,r18
 1904 0e96 931F      		adc r25,r19
 1905 0e98 0496      		adiw r24,4
 1906 0e9a FC01      		movw r30,r24
 1907 0e9c 8081      		ld r24,Z
 1908 0e9e 0E94 0000 		call display_hex2
 1909 0ea2 8C81      		ldd r24,Y+4
 1910 0ea4 8F5F      		subi r24,lo8(-(1))
 1911 0ea6 8C83      		std Y+4,r24
 1912               	.L101:
 1913 0ea8 8D81      		ldd r24,Y+5
 1914 0eaa 9E81      		ldd r25,Y+6
 1915 0eac FC01      		movw r30,r24
 1916 0eae 9181      		ldd r25,Z+1
 1917 0eb0 8C81      		ldd r24,Y+4
 1918 0eb2 8917      		cp r24,r25
 1919 0eb4 00F0      		brlo .L102
 1920 0eb6 0E94 0000 		call display_nl
 1921               	.L98:
 1922 0eba 8D81      		ldd r24,Y+5
 1923 0ebc 9E81      		ldd r25,Y+6
 1924 0ebe FC01      		movw r30,r24
 1925 0ec0 1082      		st Z,__zero_reg__
 1926 0ec2 8D81      		ldd r24,Y+5
 1927 0ec4 9E81      		ldd r25,Y+6
 1928 0ec6 FC01      		movw r30,r24
 1929 0ec8 16AA      		std Z+54,__zero_reg__
 1930 0eca 1092 0000 		sts maxLevel+1,__zero_reg__
 1931 0ece 1092 0000 		sts maxLevel,__zero_reg__
 1932 0ed2 8091 0000 		lds r24,bucket_nrused
 1933 0ed6 8150      		subi r24,lo8(-(-1))
 1934 0ed8 8093 0000 		sts bucket_nrused,r24
 1935 0edc 8091 0000 		lds r24,bucket_out
 1936 0ee0 8F5F      		subi r24,lo8(-(1))
 1937 0ee2 8093 0000 		sts bucket_out,r24
 1938 0ee6 8091 0000 		lds r24,bucket_out
 1939 0eea 8230      		cpi r24,lo8(2)
 1940 0eec 01F4      		brne .L103
 1941 0eee 1092 0000 		sts bucket_out,__zero_reg__
 1942               	.L103:
 1943 0ef2 85E2      		ldi r24,lo8(37)
 1944 0ef4 90E0      		ldi r25,0
 1945 0ef6 25E2      		ldi r18,lo8(37)
 1946 0ef8 30E0      		ldi r19,0
 1947 0efa F901      		movw r30,r18
 1948 0efc 2081      		ld r18,Z
 1949 0efe 2E7F      		andi r18,lo8(-2)
 1950 0f00 FC01      		movw r30,r24
 1951 0f02 2083      		st Z,r18
 1952               	.L58:
 1953               	/* epilogue start */
 1954 0f04 2996      		adiw r28,9
 1955 0f06 E6E0      		ldi r30, lo8(6)
 1956 0f08 0C94 0000 		jmp __epilogue_restores__ + ((18 - 6) * 2)
 1958               	.global	reset_input
 1960               	reset_input:
 1961 0f0c A0E0      		ldi r26,0
 1962 0f0e B0E0      		ldi r27,0
 1963 0f10 E0E0      		ldi r30,lo8(gs(1f))
 1964 0f12 F0E0      		ldi r31,hi8(gs(1f))
 1965 0f14 0C94 0000 		jmp __prologue_saves__+((18 - 2) * 2)
 1966               	1:
 1967               	/* prologue: function */
 1968               	/* frame size = 0 */
 1969               	/* stack size = 2 */
 1970               	.L__stack_usage = 2
 1971 0f18 1092 0000 		sts maxLevel+1,__zero_reg__
 1972 0f1c 1092 0000 		sts maxLevel,__zero_reg__
 1973 0f20 8FE6      		ldi r24,lo8(111)
 1974 0f22 90E0      		ldi r25,0
 1975 0f24 FC01      		movw r30,r24
 1976 0f26 1082      		st Z,__zero_reg__
 1977 0f28 8091 0000 		lds r24,bucket_in
 1978 0f2c 282F      		mov r18,r24
 1979 0f2e 30E0      		ldi r19,0
 1980 0f30 49E4      		ldi r20,lo8(73)
 1981 0f32 429F      		mul r20,r18
 1982 0f34 C001      		movw r24,r0
 1983 0f36 439F      		mul r20,r19
 1984 0f38 900D      		add r25,r0
 1985 0f3a 1124      		clr __zero_reg__
 1986 0f3c 8050      		subi r24,lo8(-(bucket_array))
 1987 0f3e 9040      		sbci r25,hi8(-(bucket_array))
 1988 0f40 FC01      		movw r30,r24
 1989 0f42 1082      		st Z,__zero_reg__
 1990 0f44 8091 0000 		lds r24,packetCheckValues
 1991 0f48 8D7F      		andi r24,lo8(-3)
 1992 0f4a 8093 0000 		sts packetCheckValues,r24
 1993 0f4e 88E8      		ldi r24,lo8(-120)
 1994 0f50 90E0      		ldi r25,0
 1995 0f52 FC01      		movw r30,r24
 1996 0f54 1182      		std Z+1,__zero_reg__
 1997 0f56 1082      		st Z,__zero_reg__
 1998               	/* epilogue start */
 1999 0f58 E2E0      		ldi r30, lo8(2)
 2000 0f5a 0C94 0000 		jmp __epilogue_restores__ + ((18 - 2) * 2)
 2002               	.global	__vector_13
 2004               	__vector_13:
 2005 0f5e 1F92      		push r1
 2006 0f60 0F92      		push r0
 2007 0f62 0090 5F00 		lds r0,95
 2008 0f66 0F92      		push r0
 2009 0f68 1124      		clr __zero_reg__
 2010 0f6a 2F93      		push r18
 2011 0f6c 3F93      		push r19
 2012 0f6e 4F93      		push r20
 2013 0f70 5F93      		push r21
 2014 0f72 6F93      		push r22
 2015 0f74 7F93      		push r23
 2016 0f76 8F93      		push r24
 2017 0f78 9F93      		push r25
 2018 0f7a AF93      		push r26
 2019 0f7c BF93      		push r27
 2020 0f7e EF93      		push r30
 2021 0f80 FF93      		push r31
 2022 0f82 CF93      		push r28
 2023 0f84 DF93      		push r29
 2024 0f86 00D0      		rcall .
 2025 0f88 CDB7      		in r28,__SP_L__
 2026 0f8a DEB7      		in r29,__SP_H__
 2027               	/* prologue: Signal */
 2028               	/* frame size = 2 */
 2029               	/* stack size = 19 */
 2030               	.L__stack_usage = 19
 2031 0f8c 8FE6      		ldi r24,lo8(111)
 2032 0f8e 90E0      		ldi r25,0
 2033 0f90 FC01      		movw r30,r24
 2034 0f92 1082      		st Z,__zero_reg__
 2035 0f94 88E8      		ldi r24,lo8(-120)
 2036 0f96 90E0      		ldi r25,0
 2037 0f98 FC01      		movw r30,r24
 2038 0f9a 8081      		ld r24,Z
 2039 0f9c 9181      		ldd r25,Z+1
 2040 0f9e 9A83      		std Y+2,r25
 2041 0fa0 8983      		std Y+1,r24
 2042 0fa2 88E8      		ldi r24,lo8(-120)
 2043 0fa4 90E0      		ldi r25,0
 2044 0fa6 20E2      		ldi r18,lo8(32)
 2045 0fa8 3EE4      		ldi r19,lo8(78)
 2046 0faa FC01      		movw r30,r24
 2047 0fac 3183      		std Z+1,r19
 2048 0fae 2083      		st Z,r18
 2049 0fb0 84E8      		ldi r24,lo8(-124)
 2050 0fb2 90E0      		ldi r25,0
 2051 0fb4 2981      		ldd r18,Y+1
 2052 0fb6 3A81      		ldd r19,Y+2
 2053 0fb8 FC01      		movw r30,r24
 2054 0fba 3183      		std Z+1,r19
 2055 0fbc 2083      		st Z,r18
 2056 0fbe 8091 0000 		lds r24,tx_report
 2057 0fc2 882F      		mov r24,r24
 2058 0fc4 90E0      		ldi r25,0
 2059 0fc6 8870      		andi r24,8
 2060 0fc8 9927      		clr r25
 2061 0fca 892B      		or r24,r25
 2062 0fcc 01F0      		breq .L106
 2063 0fce 8EE2      		ldi r24,lo8(46)
 2064 0fd0 0E94 0000 		call display_char
 2065               	.L106:
 2066 0fd4 8091 0000 		lds r24,bucket_in
 2067 0fd8 282F      		mov r18,r24
 2068 0fda 30E0      		ldi r19,0
 2069 0fdc 49E4      		ldi r20,lo8(73)
 2070 0fde 429F      		mul r20,r18
 2071 0fe0 C001      		movw r24,r0
 2072 0fe2 439F      		mul r20,r19
 2073 0fe4 900D      		add r25,r0
 2074 0fe6 1124      		clr __zero_reg__
 2075 0fe8 8050      		subi r24,lo8(-(bucket_array))
 2076 0fea 9040      		sbci r25,hi8(-(bucket_array))
 2077 0fec FC01      		movw r30,r24
 2078 0fee 8081      		ld r24,Z
 2079 0ff0 8330      		cpi r24,lo8(3)
 2080 0ff2 00F0      		brlo .L107
 2081 0ff4 8091 0000 		lds r24,bucket_in
 2082 0ff8 282F      		mov r18,r24
 2083 0ffa 30E0      		ldi r19,0
 2084 0ffc 49E4      		ldi r20,lo8(73)
 2085 0ffe 429F      		mul r20,r18
 2086 1000 C001      		movw r24,r0
 2087 1002 439F      		mul r20,r19
 2088 1004 900D      		add r25,r0
 2089 1006 1124      		clr __zero_reg__
 2090 1008 8050      		subi r24,lo8(-(bucket_array+1))
 2091 100a 9040      		sbci r25,hi8(-(bucket_array+1))
 2092 100c FC01      		movw r30,r24
 2093 100e 8081      		ld r24,Z
 2094 1010 8230      		cpi r24,lo8(2)
 2095 1012 00F4      		brsh .L108
 2096               	.L107:
 2097 1014 0E94 0000 		call reset_input
 2098 1018 00C0      		rjmp .L105
 2099               	.L108:
 2100 101a 8091 0000 		lds r24,bucket_nrused
 2101 101e 8130      		cpi r24,lo8(1)
 2102 1020 01F4      		brne .L110
 2103 1022 8091 0000 		lds r24,tx_report
 2104 1026 882F      		mov r24,r24
 2105 1028 90E0      		ldi r25,0
 2106 102a 8470      		andi r24,4
 2107 102c 9927      		clr r25
 2108 102e 892B      		or r24,r25
 2109 1030 01F0      		breq .L111
 2110 1032 80E0      		ldi r24,lo8(__c.2337)
 2111 1034 90E0      		ldi r25,hi8(__c.2337)
 2112 1036 0E94 0000 		call display_string_P
 2113               	.L111:
 2114 103a 0E94 0000 		call reset_input
 2115 103e 00C0      		rjmp .L105
 2116               	.L110:
 2117 1040 8091 0000 		lds r24,bucket_nrused
 2118 1044 8F5F      		subi r24,lo8(-(1))
 2119 1046 8093 0000 		sts bucket_nrused,r24
 2120 104a 8091 0000 		lds r24,bucket_in
 2121 104e 8F5F      		subi r24,lo8(-(1))
 2122 1050 8093 0000 		sts bucket_in,r24
 2123 1054 8091 0000 		lds r24,bucket_in
 2124 1058 8230      		cpi r24,lo8(2)
 2125 105a 01F4      		brne .L105
 2126 105c 1092 0000 		sts bucket_in,__zero_reg__
 2127               	.L105:
 2128               	/* epilogue start */
 2129 1060 0F90      		pop __tmp_reg__
 2130 1062 0F90      		pop __tmp_reg__
 2131 1064 DF91      		pop r29
 2132 1066 CF91      		pop r28
 2133 1068 FF91      		pop r31
 2134 106a EF91      		pop r30
 2135 106c BF91      		pop r27
 2136 106e AF91      		pop r26
 2137 1070 9F91      		pop r25
 2138 1072 8F91      		pop r24
 2139 1074 7F91      		pop r23
 2140 1076 6F91      		pop r22
 2141 1078 5F91      		pop r21
 2142 107a 4F91      		pop r20
 2143 107c 3F91      		pop r19
 2144 107e 2F91      		pop r18
 2145 1080 0F90      		pop r0
 2146 1082 0092 5F00 		sts 95,r0
 2147 1086 0F90      		pop r0
 2148 1088 1F90      		pop r1
 2149 108a 1895      		reti
 2151               	.global	wave_equals
 2153               	wave_equals:
 2154 108c ACE0      		ldi r26,lo8(12)
 2155 108e B0E0      		ldi r27,0
 2156 1090 E0E0      		ldi r30,lo8(gs(1f))
 2157 1092 F0E0      		ldi r31,hi8(gs(1f))
 2158 1094 0C94 0000 		jmp __prologue_saves__+((18 - 2) * 2)
 2159               	1:
 2160               	/* prologue: function */
 2161               	/* frame size = 12 */
 2162               	/* stack size = 14 */
 2163               	.L__stack_usage = 14
 2164 1098 9987      		std Y+9,r25
 2165 109a 8887      		std Y+8,r24
 2166 109c 6A87      		std Y+10,r22
 2167 109e 4B87      		std Y+11,r20
 2168 10a0 2C87      		std Y+12,r18
 2169 10a2 8CE0      		ldi r24,lo8(12)
 2170 10a4 8983      		std Y+1,r24
 2171 10a6 8885      		ldd r24,Y+8
 2172 10a8 9985      		ldd r25,Y+9
 2173 10aa FC01      		movw r30,r24
 2174 10ac 2281      		ldd r18,Z+2
 2175 10ae 3381      		ldd r19,Z+3
 2176 10b0 8B85      		ldd r24,Y+11
 2177 10b2 882F      		mov r24,r24
 2178 10b4 90E0      		ldi r25,0
 2179 10b6 A901      		movw r20,r18
 2180 10b8 481B      		sub r20,r24
 2181 10ba 590B      		sbc r21,r25
 2182 10bc CA01      		movw r24,r20
 2183 10be 9B83      		std Y+3,r25
 2184 10c0 8A83      		std Y+2,r24
 2185 10c2 8885      		ldd r24,Y+8
 2186 10c4 9985      		ldd r25,Y+9
 2187 10c6 FC01      		movw r30,r24
 2188 10c8 2081      		ld r18,Z
 2189 10ca 3181      		ldd r19,Z+1
 2190 10cc 8A85      		ldd r24,Y+10
 2191 10ce 882F      		mov r24,r24
 2192 10d0 90E0      		ldi r25,0
 2193 10d2 A901      		movw r20,r18
 2194 10d4 481B      		sub r20,r24
 2195 10d6 590B      		sbc r21,r25
 2196 10d8 CA01      		movw r24,r20
 2197 10da 9D83      		std Y+5,r25
 2198 10dc 8C83      		std Y+4,r24
 2199 10de 8885      		ldd r24,Y+8
 2200 10e0 9985      		ldd r25,Y+9
 2201 10e2 FC01      		movw r30,r24
 2202 10e4 2281      		ldd r18,Z+2
 2203 10e6 3381      		ldd r19,Z+3
 2204 10e8 8885      		ldd r24,Y+8
 2205 10ea 9985      		ldd r25,Y+9
 2206 10ec FC01      		movw r30,r24
 2207 10ee 8081      		ld r24,Z
 2208 10f0 9181      		ldd r25,Z+1
 2209 10f2 820F      		add r24,r18
 2210 10f4 931F      		adc r25,r19
 2211 10f6 2B85      		ldd r18,Y+11
 2212 10f8 422F      		mov r20,r18
 2213 10fa 50E0      		ldi r21,0
 2214 10fc 2A85      		ldd r18,Y+10
 2215 10fe 222F      		mov r18,r18
 2216 1100 30E0      		ldi r19,0
 2217 1102 240F      		add r18,r20
 2218 1104 351F      		adc r19,r21
 2219 1106 821B      		sub r24,r18
 2220 1108 930B      		sbc r25,r19
 2221 110a 9F83      		std Y+7,r25
 2222 110c 8E83      		std Y+6,r24
 2223 110e 8981      		ldd r24,Y+1
 2224 1110 282F      		mov r18,r24
 2225 1112 30E0      		ldi r19,0
 2226 1114 8A81      		ldd r24,Y+2
 2227 1116 9B81      		ldd r25,Y+3
 2228 1118 8217      		cp r24,r18
 2229 111a 9307      		cpc r25,r19
 2230 111c 04F4      		brge .L113
 2231 111e 8981      		ldd r24,Y+1
 2232 1120 882F      		mov r24,r24
 2233 1122 90E0      		ldi r25,0
 2234 1124 2227      		clr r18
 2235 1126 3327      		clr r19
 2236 1128 281B      		sub r18,r24
 2237 112a 390B      		sbc r19,r25
 2238 112c 8A81      		ldd r24,Y+2
 2239 112e 9B81      		ldd r25,Y+3
 2240 1130 2817      		cp r18,r24
 2241 1132 3907      		cpc r19,r25
 2242 1134 04F4      		brge .L113
 2243 1136 8981      		ldd r24,Y+1
 2244 1138 282F      		mov r18,r24
 2245 113a 30E0      		ldi r19,0
 2246 113c 8C81      		ldd r24,Y+4
 2247 113e 9D81      		ldd r25,Y+5
 2248 1140 8217      		cp r24,r18
 2249 1142 9307      		cpc r25,r19
 2250 1144 04F4      		brge .L113
 2251 1146 8981      		ldd r24,Y+1
 2252 1148 882F      		mov r24,r24
 2253 114a 90E0      		ldi r25,0
 2254 114c 2227      		clr r18
 2255 114e 3327      		clr r19
 2256 1150 281B      		sub r18,r24
 2257 1152 390B      		sbc r19,r25
 2258 1154 8C81      		ldd r24,Y+4
 2259 1156 9D81      		ldd r25,Y+5
 2260 1158 2817      		cp r18,r24
 2261 115a 3907      		cpc r19,r25
 2262 115c 04F4      		brge .L113
 2263 115e 8981      		ldd r24,Y+1
 2264 1160 282F      		mov r18,r24
 2265 1162 30E0      		ldi r19,0
 2266 1164 8E81      		ldd r24,Y+6
 2267 1166 9F81      		ldd r25,Y+7
 2268 1168 8217      		cp r24,r18
 2269 116a 9307      		cpc r25,r19
 2270 116c 04F4      		brge .L113
 2271 116e 8981      		ldd r24,Y+1
 2272 1170 882F      		mov r24,r24
 2273 1172 90E0      		ldi r25,0
 2274 1174 2227      		clr r18
 2275 1176 3327      		clr r19
 2276 1178 281B      		sub r18,r24
 2277 117a 390B      		sbc r19,r25
 2278 117c 8E81      		ldd r24,Y+6
 2279 117e 9F81      		ldd r25,Y+7
 2280 1180 2817      		cp r18,r24
 2281 1182 3907      		cpc r19,r25
 2282 1184 04F4      		brge .L113
 2283 1186 81E0      		ldi r24,lo8(1)
 2284 1188 00C0      		rjmp .L114
 2285               	.L113:
 2286 118a 80E0      		ldi r24,0
 2287               	.L114:
 2288               	/* epilogue start */
 2289 118c 2C96      		adiw r28,12
 2290 118e E2E0      		ldi r30, lo8(2)
 2291 1190 0C94 0000 		jmp __epilogue_restores__ + ((18 - 2) * 2)
 2293               	.global	check_rf_sync
 2295               	check_rf_sync:
 2296 1194 A2E0      		ldi r26,lo8(2)
 2297 1196 B0E0      		ldi r27,0
 2298 1198 E0E0      		ldi r30,lo8(gs(1f))
 2299 119a F0E0      		ldi r31,hi8(gs(1f))
 2300 119c 0C94 0000 		jmp __prologue_saves__+((18 - 2) * 2)
 2301               	1:
 2302               	/* prologue: function */
 2303               	/* frame size = 2 */
 2304               	/* stack size = 4 */
 2305               	.L__stack_usage = 4
 2306 11a0 8983      		std Y+1,r24
 2307 11a2 6A83      		std Y+2,r22
 2308 11a4 8981      		ldd r24,Y+1
 2309 11a6 8532      		cpi r24,lo8(37)
 2310 11a8 00F0      		brlo .L116
 2311 11aa 8981      		ldd r24,Y+1
 2312 11ac 8C33      		cpi r24,lo8(60)
 2313 11ae 00F4      		brsh .L116
 2314 11b0 8A81      		ldd r24,Y+2
 2315 11b2 8A30      		cpi r24,lo8(10)
 2316 11b4 00F0      		brlo .L116
 2317 11b6 8A81      		ldd r24,Y+2
 2318 11b8 8732      		cpi r24,lo8(39)
 2319 11ba 00F4      		brsh .L116
 2320 11bc 9981      		ldd r25,Y+1
 2321 11be 8A81      		ldd r24,Y+2
 2322 11c0 8917      		cp r24,r25
 2323 11c2 00F4      		brsh .L116
 2324 11c4 81E0      		ldi r24,lo8(1)
 2325 11c6 90E0      		ldi r25,0
 2326 11c8 00C0      		rjmp .L117
 2327               	.L116:
 2328 11ca 80E0      		ldi r24,0
 2329 11cc 90E0      		ldi r25,0
 2330               	.L117:
 2331               	/* epilogue start */
 2332 11ce 2296      		adiw r28,2
 2333 11d0 E2E0      		ldi r30, lo8(2)
 2334 11d2 0C94 0000 		jmp __epilogue_restores__ + ((18 - 2) * 2)
 2337               	delbit:
 2338 11d6 A2E0      		ldi r26,lo8(2)
 2339 11d8 B0E0      		ldi r27,0
 2340 11da E0E0      		ldi r30,lo8(gs(1f))
 2341 11dc F0E0      		ldi r31,hi8(gs(1f))
 2342 11de 0C94 0000 		jmp __prologue_saves__+((18 - 2) * 2)
 2343               	1:
 2344               	/* prologue: function */
 2345               	/* frame size = 2 */
 2346               	/* stack size = 4 */
 2347               	.L__stack_usage = 4
 2348 11e2 9A83      		std Y+2,r25
 2349 11e4 8983      		std Y+1,r24
 2350 11e6 8981      		ldd r24,Y+1
 2351 11e8 9A81      		ldd r25,Y+2
 2352 11ea FC01      		movw r30,r24
 2353 11ec 2381      		ldd r18,Z+3
 2354 11ee 31E0      		ldi r19,lo8(1)
 2355 11f0 320F      		add r19,r18
 2356 11f2 8981      		ldd r24,Y+1
 2357 11f4 9A81      		ldd r25,Y+2
 2358 11f6 FC01      		movw r30,r24
 2359 11f8 3383      		std Z+3,r19
 2360 11fa 2730      		cpi r18,lo8(7)
 2361 11fc 01F4      		brne .L119
 2362 11fe 8981      		ldd r24,Y+1
 2363 1200 9A81      		ldd r25,Y+2
 2364 1202 FC01      		movw r30,r24
 2365 1204 1382      		std Z+3,__zero_reg__
 2366 1206 8981      		ldd r24,Y+1
 2367 1208 9A81      		ldd r25,Y+2
 2368 120a FC01      		movw r30,r24
 2369 120c 8181      		ldd r24,Z+1
 2370 120e 2FEF      		ldi r18,lo8(-1)
 2371 1210 280F      		add r18,r24
 2372 1212 8981      		ldd r24,Y+1
 2373 1214 9A81      		ldd r25,Y+2
 2374 1216 FC01      		movw r30,r24
 2375 1218 2183      		std Z+1,r18
 2376               	.L119:
 2377               	/* epilogue start */
 2378 121a 2296      		adiw r28,2
 2379 121c E2E0      		ldi r30, lo8(2)
 2380 121e 0C94 0000 		jmp __epilogue_restores__ + ((18 - 2) * 2)
 2383               	calcOcrValue:
 2384 1222 A9E0      		ldi r26,lo8(9)
 2385 1224 B0E0      		ldi r27,0
 2386 1226 E0E0      		ldi r30,lo8(gs(1f))
 2387 1228 F0E0      		ldi r31,hi8(gs(1f))
 2388 122a 0C94 0000 		jmp __prologue_saves__+((18 - 2) * 2)
 2389               	1:
 2390               	/* prologue: function */
 2391               	/* frame size = 9 */
 2392               	/* stack size = 11 */
 2393               	.L__stack_usage = 11
 2394 122e 9C83      		std Y+4,r25
 2395 1230 8B83      		std Y+3,r24
 2396 1232 7E83      		std Y+6,r23
 2397 1234 6D83      		std Y+5,r22
 2398 1236 5887      		std Y+8,r21
 2399 1238 4F83      		std Y+7,r20
 2400 123a 2987      		std Y+9,r18
 2401 123c 8B81      		ldd r24,Y+3
 2402 123e 9C81      		ldd r25,Y+4
 2403 1240 FC01      		movw r30,r24
 2404 1242 86A9      		ldd r24,Z+54
 2405 1244 8830      		cpi r24,lo8(8)
 2406 1246 00F0      		brlo .+2
 2407 1248 00C0      		rjmp .L121
 2408 124a 8D81      		ldd r24,Y+5
 2409 124c 9E81      		ldd r25,Y+6
 2410 124e FC01      		movw r30,r24
 2411 1250 2081      		ld r18,Z
 2412 1252 3181      		ldd r19,Z+1
 2413 1254 8091 0000 		lds r24,maxLevel
 2414 1258 9091 0000 		lds r25,maxLevel+1
 2415 125c 8217      		cp r24,r18
 2416 125e 9307      		cpc r25,r19
 2417 1260 00F4      		brsh .L123
 2418 1262 8D81      		ldd r24,Y+5
 2419 1264 9E81      		ldd r25,Y+6
 2420 1266 FC01      		movw r30,r24
 2421 1268 8081      		ld r24,Z
 2422 126a 9181      		ldd r25,Z+1
 2423 126c 9093 0000 		sts maxLevel+1,r25
 2424 1270 8093 0000 		sts maxLevel,r24
 2425               	.L123:
 2426 1274 8F81      		ldd r24,Y+7
 2427 1276 9885      		ldd r25,Y+8
 2428 1278 FC01      		movw r30,r24
 2429 127a 2081      		ld r18,Z
 2430 127c 3181      		ldd r19,Z+1
 2431 127e 8091 0000 		lds r24,maxLevel
 2432 1282 9091 0000 		lds r25,maxLevel+1
 2433 1286 8217      		cp r24,r18
 2434 1288 9307      		cpc r25,r19
 2435 128a 00F4      		brsh .L124
 2436 128c 8F81      		ldd r24,Y+7
 2437 128e 9885      		ldd r25,Y+8
 2438 1290 FC01      		movw r30,r24
 2439 1292 8081      		ld r24,Z
 2440 1294 9181      		ldd r25,Z+1
 2441 1296 9093 0000 		sts maxLevel+1,r25
 2442 129a 8093 0000 		sts maxLevel,r24
 2443               	.L124:
 2444 129e 8B81      		ldd r24,Y+3
 2445 12a0 9C81      		ldd r25,Y+4
 2446 12a2 FC01      		movw r30,r24
 2447 12a4 86A9      		ldd r24,Z+54
 2448 12a6 8730      		cpi r24,lo8(7)
 2449 12a8 01F0      		breq .+2
 2450 12aa 00C0      		rjmp .L121
 2451 12ac 8091 0000 		lds r24,maxLevel
 2452 12b0 9091 0000 		lds r25,maxLevel+1
 2453 12b4 892B      		or r24,r25
 2454 12b6 01F4      		brne .+2
 2455 12b8 00C0      		rjmp .L121
 2456 12ba 1A82      		std Y+2,__zero_reg__
 2457 12bc 1982      		std Y+1,__zero_reg__
 2458 12be 8985      		ldd r24,Y+9
 2459 12c0 8823      		tst r24
 2460 12c2 01F0      		breq .L125
 2461 12c4 8B81      		ldd r24,Y+3
 2462 12c6 9C81      		ldd r25,Y+4
 2463 12c8 8D5B      		subi r24,-67
 2464 12ca 9F4F      		sbci r25,-1
 2465 12cc FC01      		movw r30,r24
 2466 12ce 2081      		ld r18,Z
 2467 12d0 3181      		ldd r19,Z+1
 2468 12d2 8091 0000 		lds r24,maxLevel
 2469 12d6 9091 0000 		lds r25,maxLevel+1
 2470 12da A901      		movw r20,r18
 2471 12dc 481B      		sub r20,r24
 2472 12de 590B      		sbc r21,r25
 2473 12e0 CA01      		movw r24,r20
 2474 12e2 9C01      		movw r18,r24
 2475 12e4 3695      		lsr r19
 2476 12e6 2795      		ror r18
 2477 12e8 3695      		lsr r19
 2478 12ea 2795      		ror r18
 2479 12ec 8091 0000 		lds r24,maxLevel
 2480 12f0 9091 0000 		lds r25,maxLevel+1
 2481 12f4 820F      		add r24,r18
 2482 12f6 931F      		adc r25,r19
 2483 12f8 9A83      		std Y+2,r25
 2484 12fa 8983      		std Y+1,r24
 2485 12fc 00C0      		rjmp .L126
 2486               	.L125:
 2487 12fe 8B81      		ldd r24,Y+3
 2488 1300 9C81      		ldd r25,Y+4
 2489 1302 8B5B      		subi r24,-69
 2490 1304 9F4F      		sbci r25,-1
 2491 1306 FC01      		movw r30,r24
 2492 1308 2081      		ld r18,Z
 2493 130a 3181      		ldd r19,Z+1
 2494 130c 8091 0000 		lds r24,maxLevel
 2495 1310 9091 0000 		lds r25,maxLevel+1
 2496 1314 A901      		movw r20,r18
 2497 1316 481B      		sub r20,r24
 2498 1318 590B      		sbc r21,r25
 2499 131a CA01      		movw r24,r20
 2500 131c 9C01      		movw r18,r24
 2501 131e 3695      		lsr r19
 2502 1320 2795      		ror r18
 2503 1322 3695      		lsr r19
 2504 1324 2795      		ror r18
 2505 1326 8091 0000 		lds r24,maxLevel
 2506 132a 9091 0000 		lds r25,maxLevel+1
 2507 132e 820F      		add r24,r18
 2508 1330 931F      		adc r25,r19
 2509 1332 9A83      		std Y+2,r25
 2510 1334 8983      		std Y+1,r24
 2511               	.L126:
 2512 1336 88E8      		ldi r24,lo8(-120)
 2513 1338 90E0      		ldi r25,0
 2514 133a 2981      		ldd r18,Y+1
 2515 133c 3A81      		ldd r19,Y+2
 2516 133e 2295      		swap r18
 2517 1340 3295      		swap r19
 2518 1342 307F      		andi r19,0xf0
 2519 1344 3227      		eor r19,r18
 2520 1346 207F      		andi r18,0xf0
 2521 1348 3227      		eor r19,r18
 2522 134a FC01      		movw r30,r24
 2523 134c 3183      		std Z+1,r19
 2524 134e 2083      		st Z,r18
 2525               	.L121:
 2526               	/* epilogue start */
 2527 1350 2996      		adiw r28,9
 2528 1352 E2E0      		ldi r30, lo8(2)
 2529 1354 0C94 0000 		jmp __epilogue_restores__ + ((18 - 2) * 2)
 2531               		.local	count_half
 2532               		.comm	count_half,2,1
 2533               	.global	__vector_3
 2535               	__vector_3:
 2536 1358 1F92      		push r1
 2537 135a 0F92      		push r0
 2538 135c 0090 5F00 		lds r0,95
 2539 1360 0F92      		push r0
 2540 1362 1124      		clr __zero_reg__
 2541 1364 2F93      		push r18
 2542 1366 3F93      		push r19
 2543 1368 4F93      		push r20
 2544 136a 5F93      		push r21
 2545 136c 6F93      		push r22
 2546 136e 7F93      		push r23
 2547 1370 8F93      		push r24
 2548 1372 9F93      		push r25
 2549 1374 AF93      		push r26
 2550 1376 BF93      		push r27
 2551 1378 EF93      		push r30
 2552 137a FF93      		push r31
 2553 137c CF93      		push r28
 2554 137e DF93      		push r29
 2555 1380 00D0      		rcall .
 2556 1382 00D0      		rcall .
 2557 1384 CDB7      		in r28,__SP_L__
 2558 1386 DEB7      		in r29,__SP_H__
 2559               	/* prologue: Signal */
 2560               	/* frame size = 4 */
 2561               	/* stack size = 21 */
 2562               	.L__stack_usage = 21
 2563 1388 8091 0000 		lds r24,fastrf_on
 2564 138c 8823      		tst r24
 2565 138e 01F0      		breq .L128
 2566 1390 82E0      		ldi r24,lo8(2)
 2567 1392 8093 0000 		sts fastrf_on,r24
 2568 1396 00C0      		rjmp .L127
 2569               	.L128:
 2570 1398 84E8      		ldi r24,lo8(-124)
 2571 139a 90E0      		ldi r25,0
 2572 139c FC01      		movw r30,r24
 2573 139e 8081      		ld r24,Z
 2574 13a0 9181      		ldd r25,Z+1
 2575 13a2 9295      		swap r25
 2576 13a4 8295      		swap r24
 2577 13a6 8F70      		andi r24,0x0f
 2578 13a8 8927      		eor r24,r25
 2579 13aa 9F70      		andi r25,0x0f
 2580 13ac 8927      		eor r24,r25
 2581 13ae 9A83      		std Y+2,r25
 2582 13b0 8983      		std Y+1,r24
 2583 13b2 8091 0000 		lds r24,bucket_in
 2584 13b6 282F      		mov r18,r24
 2585 13b8 30E0      		ldi r19,0
 2586 13ba 49E4      		ldi r20,lo8(73)
 2587 13bc 429F      		mul r20,r18
 2588 13be C001      		movw r24,r0
 2589 13c0 439F      		mul r20,r19
 2590 13c2 900D      		add r25,r0
 2591 13c4 1124      		clr __zero_reg__
 2592 13c6 8050      		subi r24,lo8(-(bucket_array))
 2593 13c8 9040      		sbci r25,hi8(-(bucket_array))
 2594 13ca 9C83      		std Y+4,r25
 2595 13cc 8B83      		std Y+3,r24
 2596 13ce 83E2      		ldi r24,lo8(35)
 2597 13d0 90E0      		ldi r25,0
 2598 13d2 FC01      		movw r30,r24
 2599 13d4 8081      		ld r24,Z
 2600 13d6 882F      		mov r24,r24
 2601 13d8 90E0      		ldi r25,0
 2602 13da 8470      		andi r24,4
 2603 13dc 9927      		clr r25
 2604 13de 892B      		or r24,r25
 2605 13e0 01F0      		breq .+2
 2606 13e2 00C0      		rjmp .L130
 2607 13e4 8981      		ldd r24,Y+1
 2608 13e6 9A81      		ldd r25,Y+2
 2609 13e8 9093 0000 		sts hightime+1,r25
 2610 13ec 8093 0000 		sts hightime,r24
 2611 13f0 8B81      		ldd r24,Y+3
 2612 13f2 9C81      		ldd r25,Y+4
 2613 13f4 FC01      		movw r30,r24
 2614 13f6 8081      		ld r24,Z
 2615 13f8 8D30      		cpi r24,lo8(13)
 2616 13fa 01F0      		breq .+2
 2617 13fc 00C0      		rjmp .L131
 2618 13fe 8B81      		ldd r24,Y+3
 2619 1400 9C81      		ldd r25,Y+4
 2620 1402 895B      		subi r24,-71
 2621 1404 9F4F      		sbci r25,-1
 2622 1406 FC01      		movw r30,r24
 2623 1408 8081      		ld r24,Z
 2624 140a 9181      		ldd r25,Z+1
 2625 140c 9C01      		movw r18,r24
 2626 140e 3695      		lsr r19
 2627 1410 2795      		ror r18
 2628 1412 8091 0000 		lds r24,hightime
 2629 1416 9091 0000 		lds r25,hightime+1
 2630 141a 8217      		cp r24,r18
 2631 141c 9307      		cpc r25,r19
 2632 141e 00F0      		brlo .L132
 2633 1420 8B81      		ldd r24,Y+3
 2634 1422 9C81      		ldd r25,Y+4
 2635 1424 895B      		subi r24,-71
 2636 1426 9F4F      		sbci r25,-1
 2637 1428 FC01      		movw r30,r24
 2638 142a 8081      		ld r24,Z
 2639 142c 9181      		ldd r25,Z+1
 2640 142e 9C01      		movw r18,r24
 2641 1430 220F      		lsl r18
 2642 1432 331F      		rol r19
 2643 1434 8B81      		ldd r24,Y+3
 2644 1436 9C81      		ldd r25,Y+4
 2645 1438 895B      		subi r24,-71
 2646 143a 9F4F      		sbci r25,-1
 2647 143c FC01      		movw r30,r24
 2648 143e 8081      		ld r24,Z
 2649 1440 9181      		ldd r25,Z+1
 2650 1442 280F      		add r18,r24
 2651 1444 391F      		adc r19,r25
 2652 1446 8091 0000 		lds r24,hightime
 2653 144a 9091 0000 		lds r25,hightime+1
 2654 144e 2817      		cp r18,r24
 2655 1450 3907      		cpc r19,r25
 2656 1452 00F4      		brsh .L133
 2657               	.L132:
 2658 1454 8B81      		ldd r24,Y+3
 2659 1456 9C81      		ldd r25,Y+4
 2660 1458 22E0      		ldi r18,lo8(2)
 2661 145a FC01      		movw r30,r24
 2662 145c 2083      		st Z,r18
 2663 145e 00C0      		rjmp .L127
 2664               	.L133:
 2665 1460 8B81      		ldd r24,Y+3
 2666 1462 9C81      		ldd r25,Y+4
 2667 1464 895B      		subi r24,-71
 2668 1466 9F4F      		sbci r25,-1
 2669 1468 FC01      		movw r30,r24
 2670 146a 2081      		ld r18,Z
 2671 146c 3181      		ldd r19,Z+1
 2672 146e 8091 0000 		lds r24,hightime
 2673 1472 9091 0000 		lds r25,hightime+1
 2674 1476 280F      		add r18,r24
 2675 1478 391F      		adc r19,r25
 2676 147a 8B81      		ldd r24,Y+3
 2677 147c 9C81      		ldd r25,Y+4
 2678 147e FC01      		movw r30,r24
 2679 1480 47A9      		ldd r20,Z+55
 2680 1482 50AD      		ldd r21,Z+56
 2681 1484 8B81      		ldd r24,Y+3
 2682 1486 9C81      		ldd r25,Y+4
 2683 1488 FC01      		movw r30,r24
 2684 148a 83AD      		ldd r24,Z+59
 2685 148c 94AD      		ldd r25,Z+60
 2686 148e 840F      		add r24,r20
 2687 1490 951F      		adc r25,r21
 2688 1492 9695      		lsr r25
 2689 1494 8795      		ror r24
 2690 1496 8217      		cp r24,r18
 2691 1498 9307      		cpc r25,r19
 2692 149a 00F0      		brlo .+2
 2693 149c 00C0      		rjmp .L134
 2694 149e 8091 0000 		lds r24,hightime
 2695 14a2 9091 0000 		lds r25,hightime+1
 2696 14a6 282F      		mov r18,r24
 2697 14a8 8B81      		ldd r24,Y+3
 2698 14aa 9C81      		ldd r25,Y+4
 2699 14ac FC01      		movw r30,r24
 2700 14ae 83AD      		ldd r24,Z+59
 2701 14b0 94AD      		ldd r25,Z+60
 2702 14b2 622F      		mov r22,r18
 2703 14b4 0E94 0000 		call makeavg
 2704 14b8 282F      		mov r18,r24
 2705 14ba 30E0      		ldi r19,0
 2706 14bc 8B81      		ldd r24,Y+3
 2707 14be 9C81      		ldd r25,Y+4
 2708 14c0 FC01      		movw r30,r24
 2709 14c2 34AF      		std Z+60,r19
 2710 14c4 23AF      		std Z+59,r18
 2711 14c6 8B81      		ldd r24,Y+3
 2712 14c8 9C81      		ldd r25,Y+4
 2713 14ca 895B      		subi r24,-71
 2714 14cc 9F4F      		sbci r25,-1
 2715 14ce FC01      		movw r30,r24
 2716 14d0 2081      		ld r18,Z
 2717 14d2 3181      		ldd r19,Z+1
 2718 14d4 8091 0000 		lds r24,hightime
 2719 14d8 9091 0000 		lds r25,hightime+1
 2720 14dc 0A97      		sbiw r24,10
 2721 14de 8217      		cp r24,r18
 2722 14e0 9307      		cpc r25,r19
 2723 14e2 00F4      		brsh .L135
 2724 14e4 8B81      		ldd r24,Y+3
 2725 14e6 9C81      		ldd r25,Y+4
 2726 14e8 895B      		subi r24,-71
 2727 14ea 9F4F      		sbci r25,-1
 2728 14ec FC01      		movw r30,r24
 2729 14ee 2081      		ld r18,Z
 2730 14f0 3181      		ldd r19,Z+1
 2731 14f2 8091 0000 		lds r24,hightime
 2732 14f6 9091 0000 		lds r25,hightime+1
 2733 14fa 0A96      		adiw r24,10
 2734 14fc 2817      		cp r18,r24
 2735 14fe 3907      		cpc r19,r25
 2736 1500 00F4      		brsh .L135
 2737 1502 8091 0000 		lds r24,count_half
 2738 1506 9091 0000 		lds r25,count_half+1
 2739 150a 0196      		adiw r24,1
 2740 150c 9093 0000 		sts count_half+1,r25
 2741 1510 8093 0000 		sts count_half,r24
 2742 1514 00C0      		rjmp .L137
 2743               	.L135:
 2744 1516 8091 0000 		lds r24,count_half
 2745 151a 9091 0000 		lds r25,count_half+1
 2746 151e 0296      		adiw r24,2
 2747 1520 9093 0000 		sts count_half+1,r25
 2748 1524 8093 0000 		sts count_half,r24
 2749 1528 00C0      		rjmp .L137
 2750               	.L134:
 2751 152a 8091 0000 		lds r24,hightime
 2752 152e 9091 0000 		lds r25,hightime+1
 2753 1532 282F      		mov r18,r24
 2754 1534 8B81      		ldd r24,Y+3
 2755 1536 9C81      		ldd r25,Y+4
 2756 1538 FC01      		movw r30,r24
 2757 153a 87A9      		ldd r24,Z+55
 2758 153c 90AD      		ldd r25,Z+56
 2759 153e 622F      		mov r22,r18
 2760 1540 0E94 0000 		call makeavg
 2761 1544 282F      		mov r18,r24
 2762 1546 30E0      		ldi r19,0
 2763 1548 8B81      		ldd r24,Y+3
 2764 154a 9C81      		ldd r25,Y+4
 2765 154c FC01      		movw r30,r24
 2766 154e 30AF      		std Z+56,r19
 2767 1550 27AB      		std Z+55,r18
 2768 1552 8091 0000 		lds r24,count_half
 2769 1556 9091 0000 		lds r25,count_half+1
 2770 155a 0196      		adiw r24,1
 2771 155c 9093 0000 		sts count_half+1,r25
 2772 1560 8093 0000 		sts count_half,r24
 2773               	.L137:
 2774 1564 8091 0000 		lds r24,count_half
 2775 1568 9091 0000 		lds r25,count_half+1
 2776 156c 8170      		andi r24,1
 2777 156e 9927      		clr r25
 2778 1570 892B      		or r24,r25
 2779 1572 01F0      		breq .L131
 2780 1574 8B81      		ldd r24,Y+3
 2781 1576 9C81      		ldd r25,Y+4
 2782 1578 61E0      		ldi r22,lo8(1)
 2783 157a 0E94 0000 		call addbit
 2784 157e 00C0      		rjmp .L127
 2785               	.L131:
 2786 1580 00C0      		rjmp .L127
 2787               	.L130:
 2788 1582 8091 0000 		lds r24,hightime
 2789 1586 9091 0000 		lds r25,hightime+1
 2790 158a 2981      		ldd r18,Y+1
 2791 158c 3A81      		ldd r19,Y+2
 2792 158e A901      		movw r20,r18
 2793 1590 481B      		sub r20,r24
 2794 1592 590B      		sbc r21,r25
 2795 1594 CA01      		movw r24,r20
 2796 1596 9093 0000 		sts lowtime+1,r25
 2797 159a 8093 0000 		sts lowtime,r24
 2798 159e 84E8      		ldi r24,lo8(-124)
 2799 15a0 90E0      		ldi r25,0
 2800 15a2 FC01      		movw r30,r24
 2801 15a4 1182      		std Z+1,__zero_reg__
 2802 15a6 1082      		st Z,__zero_reg__
 2803 15a8 86E3      		ldi r24,lo8(54)
 2804 15aa 90E0      		ldi r25,0
 2805 15ac 22E0      		ldi r18,lo8(2)
 2806 15ae FC01      		movw r30,r24
 2807 15b0 2083      		st Z,r18
 2808 15b2 8B81      		ldd r24,Y+3
 2809 15b4 9C81      		ldd r25,Y+4
 2810 15b6 FC01      		movw r30,r24
 2811 15b8 8081      		ld r24,Z
 2812 15ba 8D30      		cpi r24,lo8(13)
 2813 15bc 01F0      		breq .+2
 2814 15be 00C0      		rjmp .L138
 2815               	.L139:
 2816 15c0 8B81      		ldd r24,Y+3
 2817 15c2 9C81      		ldd r25,Y+4
 2818 15c4 895B      		subi r24,-71
 2819 15c6 9F4F      		sbci r25,-1
 2820 15c8 FC01      		movw r30,r24
 2821 15ca 8081      		ld r24,Z
 2822 15cc 9181      		ldd r25,Z+1
 2823 15ce 9C01      		movw r18,r24
 2824 15d0 3695      		lsr r19
 2825 15d2 2795      		ror r18
 2826 15d4 8091 0000 		lds r24,lowtime
 2827 15d8 9091 0000 		lds r25,lowtime+1
 2828 15dc 8217      		cp r24,r18
 2829 15de 9307      		cpc r25,r19
 2830 15e0 00F0      		brlo .L140
 2831 15e2 8B81      		ldd r24,Y+3
 2832 15e4 9C81      		ldd r25,Y+4
 2833 15e6 895B      		subi r24,-71
 2834 15e8 9F4F      		sbci r25,-1
 2835 15ea FC01      		movw r30,r24
 2836 15ec 8081      		ld r24,Z
 2837 15ee 9181      		ldd r25,Z+1
 2838 15f0 9C01      		movw r18,r24
 2839 15f2 220F      		lsl r18
 2840 15f4 331F      		rol r19
 2841 15f6 8B81      		ldd r24,Y+3
 2842 15f8 9C81      		ldd r25,Y+4
 2843 15fa 895B      		subi r24,-71
 2844 15fc 9F4F      		sbci r25,-1
 2845 15fe FC01      		movw r30,r24
 2846 1600 8081      		ld r24,Z
 2847 1602 9181      		ldd r25,Z+1
 2848 1604 280F      		add r18,r24
 2849 1606 391F      		adc r19,r25
 2850 1608 8091 0000 		lds r24,lowtime
 2851 160c 9091 0000 		lds r25,lowtime+1
 2852 1610 2817      		cp r18,r24
 2853 1612 3907      		cpc r19,r25
 2854 1614 00F4      		brsh .L141
 2855               	.L140:
 2856 1616 8B81      		ldd r24,Y+3
 2857 1618 9C81      		ldd r25,Y+4
 2858 161a 22E0      		ldi r18,lo8(2)
 2859 161c FC01      		movw r30,r24
 2860 161e 2083      		st Z,r18
 2861 1620 00C0      		rjmp .L138
 2862               	.L141:
 2863 1622 8B81      		ldd r24,Y+3
 2864 1624 9C81      		ldd r25,Y+4
 2865 1626 895B      		subi r24,-71
 2866 1628 9F4F      		sbci r25,-1
 2867 162a FC01      		movw r30,r24
 2868 162c 2081      		ld r18,Z
 2869 162e 3181      		ldd r19,Z+1
 2870 1630 8091 0000 		lds r24,lowtime
 2871 1634 9091 0000 		lds r25,lowtime+1
 2872 1638 280F      		add r18,r24
 2873 163a 391F      		adc r19,r25
 2874 163c 8B81      		ldd r24,Y+3
 2875 163e 9C81      		ldd r25,Y+4
 2876 1640 FC01      		movw r30,r24
 2877 1642 41AD      		ldd r20,Z+57
 2878 1644 52AD      		ldd r21,Z+58
 2879 1646 8B81      		ldd r24,Y+3
 2880 1648 9C81      		ldd r25,Y+4
 2881 164a FC01      		movw r30,r24
 2882 164c 85AD      		ldd r24,Z+61
 2883 164e 96AD      		ldd r25,Z+62
 2884 1650 840F      		add r24,r20
 2885 1652 951F      		adc r25,r21
 2886 1654 9695      		lsr r25
 2887 1656 8795      		ror r24
 2888 1658 8217      		cp r24,r18
 2889 165a 9307      		cpc r25,r19
 2890 165c 00F0      		brlo .+2
 2891 165e 00C0      		rjmp .L142
 2892 1660 8091 0000 		lds r24,lowtime
 2893 1664 9091 0000 		lds r25,lowtime+1
 2894 1668 282F      		mov r18,r24
 2895 166a 8B81      		ldd r24,Y+3
 2896 166c 9C81      		ldd r25,Y+4
 2897 166e FC01      		movw r30,r24
 2898 1670 85AD      		ldd r24,Z+61
 2899 1672 96AD      		ldd r25,Z+62
 2900 1674 622F      		mov r22,r18
 2901 1676 0E94 0000 		call makeavg
 2902 167a 282F      		mov r18,r24
 2903 167c 30E0      		ldi r19,0
 2904 167e 8B81      		ldd r24,Y+3
 2905 1680 9C81      		ldd r25,Y+4
 2906 1682 FC01      		movw r30,r24
 2907 1684 36AF      		std Z+62,r19
 2908 1686 25AF      		std Z+61,r18
 2909 1688 8B81      		ldd r24,Y+3
 2910 168a 9C81      		ldd r25,Y+4
 2911 168c 895B      		subi r24,-71
 2912 168e 9F4F      		sbci r25,-1
 2913 1690 FC01      		movw r30,r24
 2914 1692 2081      		ld r18,Z
 2915 1694 3181      		ldd r19,Z+1
 2916 1696 8091 0000 		lds r24,lowtime
 2917 169a 9091 0000 		lds r25,lowtime+1
 2918 169e 0A97      		sbiw r24,10
 2919 16a0 8217      		cp r24,r18
 2920 16a2 9307      		cpc r25,r19
 2921 16a4 00F4      		brsh .L143
 2922 16a6 8B81      		ldd r24,Y+3
 2923 16a8 9C81      		ldd r25,Y+4
 2924 16aa 895B      		subi r24,-71
 2925 16ac 9F4F      		sbci r25,-1
 2926 16ae FC01      		movw r30,r24
 2927 16b0 2081      		ld r18,Z
 2928 16b2 3181      		ldd r19,Z+1
 2929 16b4 8091 0000 		lds r24,lowtime
 2930 16b8 9091 0000 		lds r25,lowtime+1
 2931 16bc 0A96      		adiw r24,10
 2932 16be 2817      		cp r18,r24
 2933 16c0 3907      		cpc r19,r25
 2934 16c2 00F4      		brsh .L143
 2935 16c4 8091 0000 		lds r24,count_half
 2936 16c8 9091 0000 		lds r25,count_half+1
 2937 16cc 0196      		adiw r24,1
 2938 16ce 9093 0000 		sts count_half+1,r25
 2939 16d2 8093 0000 		sts count_half,r24
 2940 16d6 00C0      		rjmp .L145
 2941               	.L143:
 2942 16d8 8091 0000 		lds r24,count_half
 2943 16dc 9091 0000 		lds r25,count_half+1
 2944 16e0 0296      		adiw r24,2
 2945 16e2 9093 0000 		sts count_half+1,r25
 2946 16e6 8093 0000 		sts count_half,r24
 2947 16ea 00C0      		rjmp .L145
 2948               	.L142:
 2949 16ec 8091 0000 		lds r24,lowtime
 2950 16f0 9091 0000 		lds r25,lowtime+1
 2951 16f4 282F      		mov r18,r24
 2952 16f6 8B81      		ldd r24,Y+3
 2953 16f8 9C81      		ldd r25,Y+4
 2954 16fa FC01      		movw r30,r24
 2955 16fc 81AD      		ldd r24,Z+57
 2956 16fe 92AD      		ldd r25,Z+58
 2957 1700 622F      		mov r22,r18
 2958 1702 0E94 0000 		call makeavg
 2959 1706 282F      		mov r18,r24
 2960 1708 30E0      		ldi r19,0
 2961 170a 8B81      		ldd r24,Y+3
 2962 170c 9C81      		ldd r25,Y+4
 2963 170e FC01      		movw r30,r24
 2964 1710 32AF      		std Z+58,r19
 2965 1712 21AF      		std Z+57,r18
 2966 1714 8091 0000 		lds r24,count_half
 2967 1718 9091 0000 		lds r25,count_half+1
 2968 171c 0196      		adiw r24,1
 2969 171e 9093 0000 		sts count_half+1,r25
 2970 1722 8093 0000 		sts count_half,r24
 2971               	.L145:
 2972 1726 8091 0000 		lds r24,count_half
 2973 172a 9091 0000 		lds r25,count_half+1
 2974 172e 8170      		andi r24,1
 2975 1730 9927      		clr r25
 2976 1732 892B      		or r24,r25
 2977 1734 01F0      		breq .L146
 2978 1736 8B81      		ldd r24,Y+3
 2979 1738 9C81      		ldd r25,Y+4
 2980 173a 60E0      		ldi r22,0
 2981 173c 0E94 0000 		call addbit
 2982 1740 00C0      		rjmp .L127
 2983               	.L146:
 2984 1742 00C0      		rjmp .L127
 2985               	.L138:
 2986 1744 8B81      		ldd r24,Y+3
 2987 1746 9C81      		ldd r25,Y+4
 2988 1748 FC01      		movw r30,r24
 2989 174a 8081      		ld r24,Z
 2990 174c 882F      		mov r24,r24
 2991 174e 90E0      		ldi r25,0
 2992 1750 8230      		cpi r24,2
 2993 1752 9105      		cpc r25,__zero_reg__
 2994 1754 01F4      		brne .+2
 2995 1756 00C0      		rjmp .L148
 2996 1758 8330      		cpi r24,3
 2997 175a 9105      		cpc r25,__zero_reg__
 2998 175c 04F4      		brge .L149
 2999 175e 892B      		or r24,r25
 3000 1760 01F0      		breq .L150
 3001 1762 00C0      		rjmp .L147
 3002               	.L149:
 3003 1764 8630      		cpi r24,6
 3004 1766 9105      		cpc r25,__zero_reg__
 3005 1768 01F4      		brne .+2
 3006 176a 00C0      		rjmp .L151
 3007 176c 0B97      		sbiw r24,11
 3008 176e 01F4      		brne .+2
 3009 1770 00C0      		rjmp .L152
 3010 1772 00C0      		rjmp .L147
 3011               	.L150:
 3012 1774 8B81      		ldd r24,Y+3
 3013 1776 9C81      		ldd r25,Y+4
 3014 1778 FC01      		movw r30,r24
 3015 177a 10AE      		std Z+56,__zero_reg__
 3016 177c 17AA      		std Z+55,__zero_reg__
 3017 177e 8B81      		ldd r24,Y+3
 3018 1780 9C81      		ldd r25,Y+4
 3019 1782 FC01      		movw r30,r24
 3020 1784 12AE      		std Z+58,__zero_reg__
 3021 1786 11AE      		std Z+57,__zero_reg__
 3022 1788 8B81      		ldd r24,Y+3
 3023 178a 9C81      		ldd r25,Y+4
 3024 178c FC01      		movw r30,r24
 3025 178e 14AE      		std Z+60,__zero_reg__
 3026 1790 13AE      		std Z+59,__zero_reg__
 3027 1792 8B81      		ldd r24,Y+3
 3028 1794 9C81      		ldd r25,Y+4
 3029 1796 FC01      		movw r30,r24
 3030 1798 16AE      		std Z+62,__zero_reg__
 3031 179a 15AE      		std Z+61,__zero_reg__
 3032 179c 8B81      		ldd r24,Y+3
 3033 179e 9C81      		ldd r25,Y+4
 3034 17a0 CF96      		adiw r24,63
 3035 17a2 FC01      		movw r30,r24
 3036 17a4 1182      		std Z+1,__zero_reg__
 3037 17a6 1082      		st Z,__zero_reg__
 3038 17a8 8B81      		ldd r24,Y+3
 3039 17aa 9C81      		ldd r25,Y+4
 3040 17ac 8F5B      		subi r24,-65
 3041 17ae 9F4F      		sbci r25,-1
 3042 17b0 FC01      		movw r30,r24
 3043 17b2 1182      		std Z+1,__zero_reg__
 3044 17b4 1082      		st Z,__zero_reg__
 3045 17b6 1092 0000 		sts count_half+1,__zero_reg__
 3046 17ba 1092 0000 		sts count_half,__zero_reg__
 3047 17be 8B81      		ldd r24,Y+3
 3048 17c0 9C81      		ldd r25,Y+4
 3049 17c2 895B      		subi r24,-71
 3050 17c4 9F4F      		sbci r25,-1
 3051 17c6 FC01      		movw r30,r24
 3052 17c8 1182      		std Z+1,__zero_reg__
 3053 17ca 1082      		st Z,__zero_reg__
 3054 17cc 8B81      		ldd r24,Y+3
 3055 17ce 9C81      		ldd r25,Y+4
 3056 17d0 FC01      		movw r30,r24
 3057 17d2 16AA      		std Z+54,__zero_reg__
 3058 17d4 8B81      		ldd r24,Y+3
 3059 17d6 9C81      		ldd r25,Y+4
 3060 17d8 FC01      		movw r30,r24
 3061 17da 1182      		std Z+1,__zero_reg__
 3062 17dc 8B81      		ldd r24,Y+3
 3063 17de 9C81      		ldd r25,Y+4
 3064 17e0 27E0      		ldi r18,lo8(7)
 3065 17e2 FC01      		movw r30,r24
 3066 17e4 2383      		std Z+3,r18
 3067 17e6 8B81      		ldd r24,Y+3
 3068 17e8 9C81      		ldd r25,Y+4
 3069 17ea FC01      		movw r30,r24
 3070 17ec 1482      		std Z+4,__zero_reg__
 3071 17ee 8B81      		ldd r24,Y+3
 3072 17f0 9C81      		ldd r25,Y+4
 3073 17f2 40E0      		ldi r20,lo8(lowtime)
 3074 17f4 50E0      		ldi r21,hi8(lowtime)
 3075 17f6 60E0      		ldi r22,lo8(hightime)
 3076 17f8 70E0      		ldi r23,hi8(hightime)
 3077 17fa 0E94 0000 		call is_revolt
 3078 17fe 8823      		tst r24
 3079 1800 01F0      		breq .L153
 3080 1802 00C0      		rjmp .L127
 3081               	.L153:
 3082 1804 2091 0000 		lds r18,hightime
 3083 1808 3091 0000 		lds r19,hightime+1
 3084 180c 8B81      		ldd r24,Y+3
 3085 180e 9C81      		ldd r25,Y+4
 3086 1810 8D5B      		subi r24,-67
 3087 1812 9F4F      		sbci r25,-1
 3088 1814 FC01      		movw r30,r24
 3089 1816 3183      		std Z+1,r19
 3090 1818 2083      		st Z,r18
 3091 181a 2091 0000 		lds r18,lowtime
 3092 181e 3091 0000 		lds r19,lowtime+1
 3093 1822 8B81      		ldd r24,Y+3
 3094 1824 9C81      		ldd r25,Y+4
 3095 1826 8B5B      		subi r24,-69
 3096 1828 9F4F      		sbci r25,-1
 3097 182a FC01      		movw r30,r24
 3098 182c 3183      		std Z+1,r19
 3099 182e 2083      		st Z,r18
 3100 1830 8091 0000 		lds r24,frequencyMode
 3101 1834 8130      		cpi r24,lo8(1)
 3102 1836 01F4      		brne .L154
 3103 1838 8091 0000 		lds r24,hightime
 3104 183c 9091 0000 		lds r25,hightime+1
 3105 1840 C497      		sbiw r24,52
 3106 1842 00F4      		brsh .L154
 3107 1844 8091 0000 		lds r24,hightime
 3108 1848 9091 0000 		lds r25,hightime+1
 3109 184c 0A97      		sbiw r24,10
 3110 184e 00F0      		brlo .L154
 3111 1850 8091 0000 		lds r24,lowtime
 3112 1854 9091 0000 		lds r25,lowtime+1
 3113 1858 8B36      		cpi r24,107
 3114 185a 9340      		sbci r25,3
 3115 185c 00F4      		brsh .L154
 3116 185e 8091 0000 		lds r24,lowtime
 3117 1862 9091 0000 		lds r25,lowtime+1
 3118 1866 893C      		cpi r24,-55
 3119 1868 9105      		cpc r25,__zero_reg__
 3120 186a 00F0      		brlo .L154
 3121 186c 8B81      		ldd r24,Y+3
 3122 186e 9C81      		ldd r25,Y+4
 3123 1870 2BE0      		ldi r18,lo8(11)
 3124 1872 FC01      		movw r30,r24
 3125 1874 2083      		st Z,r18
 3126 1876 8B81      		ldd r24,Y+3
 3127 1878 9C81      		ldd r25,Y+4
 3128 187a 21E0      		ldi r18,lo8(1)
 3129 187c FC01      		movw r30,r24
 3130 187e 2283      		std Z+2,r18
 3131 1880 8FE6      		ldi r24,lo8(111)
 3132 1882 90E0      		ldi r25,0
 3133 1884 22E0      		ldi r18,lo8(2)
 3134 1886 FC01      		movw r30,r24
 3135 1888 2083      		st Z,r18
 3136 188a 00C0      		rjmp .L127
 3137               	.L154:
 3138 188c 8091 0000 		lds r24,hightime
 3139 1890 9091 0000 		lds r25,hightime+1
 3140 1894 8536      		cpi r24,101
 3141 1896 9105      		cpc r25,__zero_reg__
 3142 1898 00F4      		brsh .L155
 3143 189a 8091 0000 		lds r24,lowtime
 3144 189e 9091 0000 		lds r25,lowtime+1
 3145 18a2 8536      		cpi r24,101
 3146 18a4 9105      		cpc r25,__zero_reg__
 3147 18a6 00F0      		brlo .L156
 3148               	.L155:
 3149 18a8 00C0      		rjmp .L127
 3150               	.L156:
 3151 18aa 2091 0000 		lds r18,hightime
 3152 18ae 3091 0000 		lds r19,hightime+1
 3153 18b2 8B81      		ldd r24,Y+3
 3154 18b4 9C81      		ldd r25,Y+4
 3155 18b6 FC01      		movw r30,r24
 3156 18b8 30AF      		std Z+56,r19
 3157 18ba 27AB      		std Z+55,r18
 3158 18bc 2091 0000 		lds r18,lowtime
 3159 18c0 3091 0000 		lds r19,lowtime+1
 3160 18c4 8B81      		ldd r24,Y+3
 3161 18c6 9C81      		ldd r25,Y+4
 3162 18c8 FC01      		movw r30,r24
 3163 18ca 32AF      		std Z+58,r19
 3164 18cc 21AF      		std Z+57,r18
 3165 18ce 8B81      		ldd r24,Y+3
 3166 18d0 9C81      		ldd r25,Y+4
 3167 18d2 21E0      		ldi r18,lo8(1)
 3168 18d4 FC01      		movw r30,r24
 3169 18d6 2283      		std Z+2,r18
 3170 18d8 8B81      		ldd r24,Y+3
 3171 18da 9C81      		ldd r25,Y+4
 3172 18dc 22E0      		ldi r18,lo8(2)
 3173 18de FC01      		movw r30,r24
 3174 18e0 2083      		st Z,r18
 3175 18e2 8091 0000 		lds r24,frequencyMode
 3176 18e6 8130      		cpi r24,lo8(1)
 3177 18e8 01F0      		breq .+2
 3178 18ea 00C0      		rjmp .L157
 3179 18ec 8091 0000 		lds r24,lowtime
 3180 18f0 9091 0000 		lds r25,lowtime+1
 3181 18f4 9C01      		movw r18,r24
 3182 18f6 2A50      		subi r18,10
 3183 18f8 3109      		sbc r19,__zero_reg__
 3184 18fa 8091 0000 		lds r24,hightime
 3185 18fe 9091 0000 		lds r25,hightime+1
 3186 1902 2817      		cp r18,r24
 3187 1904 3907      		cpc r19,r25
 3188 1906 00F4      		brsh .L158
 3189 1908 8091 0000 		lds r24,lowtime
 3190 190c 9091 0000 		lds r25,lowtime+1
 3191 1910 9C01      		movw r18,r24
 3192 1912 265F      		subi r18,-10
 3193 1914 3F4F      		sbci r19,-1
 3194 1916 8091 0000 		lds r24,hightime
 3195 191a 9091 0000 		lds r25,hightime+1
 3196 191e 8217      		cp r24,r18
 3197 1920 9307      		cpc r25,r19
 3198 1922 00F4      		brsh .+2
 3199 1924 00C0      		rjmp .L159
 3200               	.L158:
 3201 1926 8091 0000 		lds r24,lowtime
 3202 192a 9091 0000 		lds r25,lowtime+1
 3203 192e 8550      		subi r24,5
 3204 1930 9048      		sbci r25,-128
 3205 1932 9C01      		movw r18,r24
 3206 1934 220F      		lsl r18
 3207 1936 331F      		rol r19
 3208 1938 8091 0000 		lds r24,hightime
 3209 193c 9091 0000 		lds r25,hightime+1
 3210 1940 2817      		cp r18,r24
 3211 1942 3907      		cpc r19,r25
 3212 1944 00F4      		brsh .L160
 3213 1946 8091 0000 		lds r24,lowtime
 3214 194a 9091 0000 		lds r25,lowtime+1
 3215 194e 0596      		adiw r24,5
 3216 1950 9C01      		movw r18,r24
 3217 1952 220F      		lsl r18
 3218 1954 331F      		rol r19
 3219 1956 8091 0000 		lds r24,hightime
 3220 195a 9091 0000 		lds r25,hightime+1
 3221 195e 8217      		cp r24,r18
 3222 1960 9307      		cpc r25,r19
 3223 1962 00F0      		brlo .L159
 3224               	.L160:
 3225 1964 8091 0000 		lds r24,lowtime
 3226 1968 9091 0000 		lds r25,lowtime+1
 3227 196c 9695      		lsr r25
 3228 196e 8795      		ror r24
 3229 1970 9C01      		movw r18,r24
 3230 1972 2A50      		subi r18,10
 3231 1974 3109      		sbc r19,__zero_reg__
 3232 1976 8091 0000 		lds r24,hightime
 3233 197a 9091 0000 		lds r25,hightime+1
 3234 197e 2817      		cp r18,r24
 3235 1980 3907      		cpc r19,r25
 3236 1982 00F0      		brlo .+2
 3237 1984 00C0      		rjmp .L157
 3238 1986 8091 0000 		lds r24,lowtime
 3239 198a 9091 0000 		lds r25,lowtime+1
 3240 198e 9695      		lsr r25
 3241 1990 8795      		ror r24
 3242 1992 9C01      		movw r18,r24
 3243 1994 265F      		subi r18,-10
 3244 1996 3F4F      		sbci r19,-1
 3245 1998 8091 0000 		lds r24,hightime
 3246 199c 9091 0000 		lds r25,hightime+1
 3247 19a0 8217      		cp r24,r18
 3248 19a2 9307      		cpc r25,r19
 3249 19a4 00F0      		brlo .+2
 3250 19a6 00C0      		rjmp .L157
 3251               	.L159:
 3252 19a8 8B81      		ldd r24,Y+3
 3253 19aa 9C81      		ldd r25,Y+4
 3254 19ac 2DE0      		ldi r18,lo8(13)
 3255 19ae FC01      		movw r30,r24
 3256 19b0 2083      		st Z,r18
 3257 19b2 8091 0000 		lds r24,hightime
 3258 19b6 9091 0000 		lds r25,hightime+1
 3259 19ba 9C01      		movw r18,r24
 3260 19bc 3695      		lsr r19
 3261 19be 2795      		ror r18
 3262 19c0 8B81      		ldd r24,Y+3
 3263 19c2 9C81      		ldd r25,Y+4
 3264 19c4 895B      		subi r24,-71
 3265 19c6 9F4F      		sbci r25,-1
 3266 19c8 FC01      		movw r30,r24
 3267 19ca 3183      		std Z+1,r19
 3268 19cc 2083      		st Z,r18
 3269 19ce 81E0      		ldi r24,lo8(1)
 3270 19d0 90E0      		ldi r25,0
 3271 19d2 9093 0000 		sts count_half+1,r25
 3272 19d6 8093 0000 		sts count_half,r24
 3273 19da 8B81      		ldd r24,Y+3
 3274 19dc 9C81      		ldd r25,Y+4
 3275 19de 895B      		subi r24,-71
 3276 19e0 9F4F      		sbci r25,-1
 3277 19e2 FC01      		movw r30,r24
 3278 19e4 8081      		ld r24,Z
 3279 19e6 9181      		ldd r25,Z+1
 3280 19e8 4297      		sbiw r24,18
 3281 19ea 00F4      		brsh .L161
 3282 19ec 2091 0000 		lds r18,hightime
 3283 19f0 3091 0000 		lds r19,hightime+1
 3284 19f4 8B81      		ldd r24,Y+3
 3285 19f6 9C81      		ldd r25,Y+4
 3286 19f8 895B      		subi r24,-71
 3287 19fa 9F4F      		sbci r25,-1
 3288 19fc FC01      		movw r30,r24
 3289 19fe 3183      		std Z+1,r19
 3290 1a00 2083      		st Z,r18
 3291               	.L161:
 3292 1a02 8B81      		ldd r24,Y+3
 3293 1a04 9C81      		ldd r25,Y+4
 3294 1a06 895B      		subi r24,-71
 3295 1a08 9F4F      		sbci r25,-1
 3296 1a0a FC01      		movw r30,r24
 3297 1a0c 8081      		ld r24,Z
 3298 1a0e 9181      		ldd r25,Z+1
 3299 1a10 0C97      		sbiw r24,12
 3300 1a12 00F0      		brlo .L162
 3301 1a14 8B81      		ldd r24,Y+3
 3302 1a16 9C81      		ldd r25,Y+4
 3303 1a18 895B      		subi r24,-71
 3304 1a1a 9F4F      		sbci r25,-1
 3305 1a1c FC01      		movw r30,r24
 3306 1a1e 8081      		ld r24,Z
 3307 1a20 9181      		ldd r25,Z+1
 3308 1a22 CF97      		sbiw r24,63
 3309 1a24 00F0      		brlo .L163
 3310               	.L162:
 3311 1a26 8B81      		ldd r24,Y+3
 3312 1a28 9C81      		ldd r25,Y+4
 3313 1a2a 22E0      		ldi r18,lo8(2)
 3314 1a2c FC01      		movw r30,r24
 3315 1a2e 2083      		st Z,r18
 3316               	.L163:
 3317 1a30 88E8      		ldi r24,lo8(-120)
 3318 1a32 90E0      		ldi r25,0
 3319 1a34 20EA      		ldi r18,lo8(-96)
 3320 1a36 3FE0      		ldi r19,lo8(15)
 3321 1a38 FC01      		movw r30,r24
 3322 1a3a 3183      		std Z+1,r19
 3323 1a3c 2083      		st Z,r18
 3324 1a3e 8FE6      		ldi r24,lo8(111)
 3325 1a40 90E0      		ldi r25,0
 3326 1a42 22E0      		ldi r18,lo8(2)
 3327 1a44 FC01      		movw r30,r24
 3328 1a46 2083      		st Z,r18
 3329 1a48 2091 0000 		lds r18,lowtime
 3330 1a4c 3091 0000 		lds r19,lowtime+1
 3331 1a50 8B81      		ldd r24,Y+3
 3332 1a52 9C81      		ldd r25,Y+4
 3333 1a54 FC01      		movw r30,r24
 3334 1a56 36AF      		std Z+62,r19
 3335 1a58 25AF      		std Z+61,r18
 3336 1a5a 2091 0000 		lds r18,hightime
 3337 1a5e 3091 0000 		lds r19,hightime+1
 3338 1a62 8B81      		ldd r24,Y+3
 3339 1a64 9C81      		ldd r25,Y+4
 3340 1a66 FC01      		movw r30,r24
 3341 1a68 34AF      		std Z+60,r19
 3342 1a6a 23AF      		std Z+59,r18
 3343 1a6c 8B81      		ldd r24,Y+3
 3344 1a6e 9C81      		ldd r25,Y+4
 3345 1a70 61E0      		ldi r22,lo8(1)
 3346 1a72 0E94 0000 		call addbit
 3347 1a76 00C0      		rjmp .L139
 3348               	.L157:
 3349 1a78 00C0      		rjmp .L127
 3350               	.L148:
 3351 1a7a 8B81      		ldd r24,Y+3
 3352 1a7c 9C81      		ldd r25,Y+4
 3353 1a7e FC01      		movw r30,r24
 3354 1a80 2081      		ld r18,Z
 3355 1a82 8091 0000 		lds r24,lowtime
 3356 1a86 9091 0000 		lds r25,lowtime+1
 3357 1a8a 482F      		mov r20,r24
 3358 1a8c 8091 0000 		lds r24,hightime
 3359 1a90 9091 0000 		lds r25,hightime+1
 3360 1a94 382F      		mov r19,r24
 3361 1a96 8B81      		ldd r24,Y+3
 3362 1a98 9C81      		ldd r25,Y+4
 3363 1a9a C796      		adiw r24,55
 3364 1a9c 632F      		mov r22,r19
 3365 1a9e 0E94 0000 		call wave_equals
 3366 1aa2 8823      		tst r24
 3367 1aa4 01F0      		breq .L164
 3368 1aa6 8091 0000 		lds r24,hightime
 3369 1aaa 9091 0000 		lds r25,hightime+1
 3370 1aae 282F      		mov r18,r24
 3371 1ab0 8B81      		ldd r24,Y+3
 3372 1ab2 9C81      		ldd r25,Y+4
 3373 1ab4 FC01      		movw r30,r24
 3374 1ab6 87A9      		ldd r24,Z+55
 3375 1ab8 90AD      		ldd r25,Z+56
 3376 1aba 622F      		mov r22,r18
 3377 1abc 0E94 0000 		call makeavg
 3378 1ac0 282F      		mov r18,r24
 3379 1ac2 30E0      		ldi r19,0
 3380 1ac4 8B81      		ldd r24,Y+3
 3381 1ac6 9C81      		ldd r25,Y+4
 3382 1ac8 FC01      		movw r30,r24
 3383 1aca 30AF      		std Z+56,r19
 3384 1acc 27AB      		std Z+55,r18
 3385 1ace 8091 0000 		lds r24,lowtime
 3386 1ad2 9091 0000 		lds r25,lowtime+1
 3387 1ad6 282F      		mov r18,r24
 3388 1ad8 8B81      		ldd r24,Y+3
 3389 1ada 9C81      		ldd r25,Y+4
 3390 1adc FC01      		movw r30,r24
 3391 1ade 81AD      		ldd r24,Z+57
 3392 1ae0 92AD      		ldd r25,Z+58
 3393 1ae2 622F      		mov r22,r18
 3394 1ae4 0E94 0000 		call makeavg
 3395 1ae8 282F      		mov r18,r24
 3396 1aea 30E0      		ldi r19,0
 3397 1aec 8B81      		ldd r24,Y+3
 3398 1aee 9C81      		ldd r25,Y+4
 3399 1af0 FC01      		movw r30,r24
 3400 1af2 32AF      		std Z+58,r19
 3401 1af4 21AF      		std Z+57,r18
 3402 1af6 8B81      		ldd r24,Y+3
 3403 1af8 9C81      		ldd r25,Y+4
 3404 1afa 895B      		subi r24,-71
 3405 1afc 9F4F      		sbci r25,-1
 3406 1afe FC01      		movw r30,r24
 3407 1b00 1182      		std Z+1,__zero_reg__
 3408 1b02 1082      		st Z,__zero_reg__
 3409 1b04 8B81      		ldd r24,Y+3
 3410 1b06 9C81      		ldd r25,Y+4
 3411 1b08 FC01      		movw r30,r24
 3412 1b0a 8281      		ldd r24,Z+2
 3413 1b0c 21E0      		ldi r18,lo8(1)
 3414 1b0e 280F      		add r18,r24
 3415 1b10 8B81      		ldd r24,Y+3
 3416 1b12 9C81      		ldd r25,Y+4
 3417 1b14 FC01      		movw r30,r24
 3418 1b16 2283      		std Z+2,r18
 3419 1b18 00C0      		rjmp .L165
 3420               	.L164:
 3421 1b1a 8B81      		ldd r24,Y+3
 3422 1b1c 9C81      		ldd r25,Y+4
 3423 1b1e FC01      		movw r30,r24
 3424 1b20 8281      		ldd r24,Z+2
 3425 1b22 8430      		cpi r24,lo8(4)
 3426 1b24 00F0      		brlo .L166
 3427 1b26 88E8      		ldi r24,lo8(-120)
 3428 1b28 90E0      		ldi r25,0
 3429 1b2a 20EA      		ldi r18,lo8(-96)
 3430 1b2c 3FE0      		ldi r19,lo8(15)
 3431 1b2e FC01      		movw r30,r24
 3432 1b30 3183      		std Z+1,r19
 3433 1b32 2083      		st Z,r18
 3434 1b34 8B81      		ldd r24,Y+3
 3435 1b36 9C81      		ldd r25,Y+4
 3436 1b38 23E0      		ldi r18,lo8(3)
 3437 1b3a FC01      		movw r30,r24
 3438 1b3c 2083      		st Z,r18
 3439 1b3e 2091 0000 		lds r18,hightime
 3440 1b42 3091 0000 		lds r19,hightime+1
 3441 1b46 8B81      		ldd r24,Y+3
 3442 1b48 9C81      		ldd r25,Y+4
 3443 1b4a FC01      		movw r30,r24
 3444 1b4c 34AF      		std Z+60,r19
 3445 1b4e 23AF      		std Z+59,r18
 3446 1b50 2091 0000 		lds r18,lowtime
 3447 1b54 3091 0000 		lds r19,lowtime+1
 3448 1b58 8B81      		ldd r24,Y+3
 3449 1b5a 9C81      		ldd r25,Y+4
 3450 1b5c FC01      		movw r30,r24
 3451 1b5e 36AF      		std Z+62,r19
 3452 1b60 25AF      		std Z+61,r18
 3453 1b62 8B81      		ldd r24,Y+3
 3454 1b64 9C81      		ldd r25,Y+4
 3455 1b66 FC01      		movw r30,r24
 3456 1b68 1182      		std Z+1,__zero_reg__
 3457 1b6a 8B81      		ldd r24,Y+3
 3458 1b6c 9C81      		ldd r25,Y+4
 3459 1b6e 27E0      		ldi r18,lo8(7)
 3460 1b70 FC01      		movw r30,r24
 3461 1b72 2383      		std Z+3,r18
 3462 1b74 8B81      		ldd r24,Y+3
 3463 1b76 9C81      		ldd r25,Y+4
 3464 1b78 FC01      		movw r30,r24
 3465 1b7a 1482      		std Z+4,__zero_reg__
 3466 1b7c 8FE6      		ldi r24,lo8(111)
 3467 1b7e 90E0      		ldi r25,0
 3468 1b80 22E0      		ldi r18,lo8(2)
 3469 1b82 FC01      		movw r30,r24
 3470 1b84 2083      		st Z,r18
 3471 1b86 00C0      		rjmp .L165
 3472               	.L166:
 3473 1b88 8B81      		ldd r24,Y+3
 3474 1b8a 9C81      		ldd r25,Y+4
 3475 1b8c FC01      		movw r30,r24
 3476 1b8e 1082      		st Z,__zero_reg__
 3477 1b90 00C0      		rjmp .L150
 3478               	.L165:
 3479 1b92 00C0      		rjmp .L127
 3480               	.L152:
 3481 1b94 8091 0000 		lds r24,lowtime
 3482 1b98 9091 0000 		lds r25,lowtime+1
 3483 1b9c 8735      		cpi r24,87
 3484 1b9e 9140      		sbci r25,1
 3485 1ba0 00F0      		brlo .+2
 3486 1ba2 00C0      		rjmp .L167
 3487 1ba4 8091 0000 		lds r24,lowtime
 3488 1ba8 9091 0000 		lds r25,lowtime+1
 3489 1bac 9C01      		movw r18,r24
 3490 1bae 2A50      		subi r18,10
 3491 1bb0 3109      		sbc r19,__zero_reg__
 3492 1bb2 8091 0000 		lds r24,hightime
 3493 1bb6 9091 0000 		lds r25,hightime+1
 3494 1bba 2817      		cp r18,r24
 3495 1bbc 3907      		cpc r19,r25
 3496 1bbe 00F4      		brsh .L168
 3497 1bc0 8091 0000 		lds r24,lowtime
 3498 1bc4 9091 0000 		lds r25,lowtime+1
 3499 1bc8 9C01      		movw r18,r24
 3500 1bca 265F      		subi r18,-10
 3501 1bcc 3F4F      		sbci r19,-1
 3502 1bce 8091 0000 		lds r24,hightime
 3503 1bd2 9091 0000 		lds r25,hightime+1
 3504 1bd6 8217      		cp r24,r18
 3505 1bd8 9307      		cpc r25,r19
 3506 1bda 00F4      		brsh .L168
 3507 1bdc 8B81      		ldd r24,Y+3
 3508 1bde 9C81      		ldd r25,Y+4
 3509 1be0 FC01      		movw r30,r24
 3510 1be2 86A9      		ldd r24,Z+54
 3511 1be4 8823      		tst r24
 3512 1be6 01F4      		brne .L168
 3513 1be8 8B81      		ldd r24,Y+3
 3514 1bea 9C81      		ldd r25,Y+4
 3515 1bec FC01      		movw r30,r24
 3516 1bee 1082      		st Z,__zero_reg__
 3517 1bf0 00C0      		rjmp .L150
 3518               	.L168:
 3519 1bf2 8B81      		ldd r24,Y+3
 3520 1bf4 9C81      		ldd r25,Y+4
 3521 1bf6 20E0      		ldi r18,0
 3522 1bf8 40E0      		ldi r20,lo8(lowtime)
 3523 1bfa 50E0      		ldi r21,hi8(lowtime)
 3524 1bfc 60E0      		ldi r22,lo8(hightime)
 3525 1bfe 70E0      		ldi r23,hi8(hightime)
 3526 1c00 0E94 0000 		call calcOcrValue
 3527 1c04 8B81      		ldd r24,Y+3
 3528 1c06 9C81      		ldd r25,Y+4
 3529 1c08 FC01      		movw r30,r24
 3530 1c0a 86A9      		ldd r24,Z+54
 3531 1c0c 8823      		tst r24
 3532 1c0e 01F4      		brne .L169
 3533 1c10 2091 0000 		lds r18,hightime
 3534 1c14 3091 0000 		lds r19,hightime+1
 3535 1c18 8B81      		ldd r24,Y+3
 3536 1c1a 9C81      		ldd r25,Y+4
 3537 1c1c FC01      		movw r30,r24
 3538 1c1e 30AF      		std Z+56,r19
 3539 1c20 27AB      		std Z+55,r18
 3540 1c22 2091 0000 		lds r18,lowtime
 3541 1c26 3091 0000 		lds r19,lowtime+1
 3542 1c2a 8B81      		ldd r24,Y+3
 3543 1c2c 9C81      		ldd r25,Y+4
 3544 1c2e FC01      		movw r30,r24
 3545 1c30 32AF      		std Z+58,r19
 3546 1c32 21AF      		std Z+57,r18
 3547               	.L169:
 3548 1c34 8091 0000 		lds r24,lowtime
 3549 1c38 9091 0000 		lds r25,lowtime+1
 3550 1c3c 8037      		cpi r24,112
 3551 1c3e 9105      		cpc r25,__zero_reg__
 3552 1c40 00F0      		brlo .+2
 3553 1c42 00C0      		rjmp .L170
 3554 1c44 8B81      		ldd r24,Y+3
 3555 1c46 9C81      		ldd r25,Y+4
 3556 1c48 8B5B      		subi r24,-69
 3557 1c4a 9F4F      		sbci r25,-1
 3558 1c4c FC01      		movw r30,r24
 3559 1c4e 8081      		ld r24,Z
 3560 1c50 9181      		ldd r25,Z+1
 3561 1c52 8A31      		cpi r24,26
 3562 1c54 9140      		sbci r25,1
 3563 1c56 00F4      		brsh .+2
 3564 1c58 00C0      		rjmp .L170
 3565 1c5a 8091 0000 		lds r24,hightime
 3566 1c5e 9091 0000 		lds r25,hightime+1
 3567 1c62 9C01      		movw r18,r24
 3568 1c64 245F      		subi r18,-12
 3569 1c66 3F4F      		sbci r19,-1
 3570 1c68 8091 0000 		lds r24,lowtime
 3571 1c6c 9091 0000 		lds r25,lowtime+1
 3572 1c70 8217      		cp r24,r18
 3573 1c72 9307      		cpc r25,r19
 3574 1c74 00F4      		brsh .L171
 3575 1c76 8B81      		ldd r24,Y+3
 3576 1c78 9C81      		ldd r25,Y+4
 3577 1c7a 60E0      		ldi r22,0
 3578 1c7c 0E94 0000 		call addbit
 3579 1c80 2091 0000 		lds r18,hightime
 3580 1c84 3091 0000 		lds r19,hightime+1
 3581 1c88 8B81      		ldd r24,Y+3
 3582 1c8a 9C81      		ldd r25,Y+4
 3583 1c8c FC01      		movw r30,r24
 3584 1c8e 34AF      		std Z+60,r19
 3585 1c90 23AF      		std Z+59,r18
 3586 1c92 2091 0000 		lds r18,lowtime
 3587 1c96 3091 0000 		lds r19,lowtime+1
 3588 1c9a 8B81      		ldd r24,Y+3
 3589 1c9c 9C81      		ldd r25,Y+4
 3590 1c9e FC01      		movw r30,r24
 3591 1ca0 36AF      		std Z+62,r19
 3592 1ca2 25AF      		std Z+61,r18
 3593 1ca4 00C0      		rjmp .L167
 3594               	.L171:
 3595 1ca6 8B81      		ldd r24,Y+3
 3596 1ca8 9C81      		ldd r25,Y+4
 3597 1caa 61E0      		ldi r22,lo8(1)
 3598 1cac 0E94 0000 		call addbit
 3599 1cb0 2091 0000 		lds r18,hightime
 3600 1cb4 3091 0000 		lds r19,hightime+1
 3601 1cb8 8B81      		ldd r24,Y+3
 3602 1cba 9C81      		ldd r25,Y+4
 3603 1cbc CF96      		adiw r24,63
 3604 1cbe FC01      		movw r30,r24
 3605 1cc0 3183      		std Z+1,r19
 3606 1cc2 2083      		st Z,r18
 3607 1cc4 2091 0000 		lds r18,lowtime
 3608 1cc8 3091 0000 		lds r19,lowtime+1
 3609 1ccc 8B81      		ldd r24,Y+3
 3610 1cce 9C81      		ldd r25,Y+4
 3611 1cd0 8F5B      		subi r24,-65
 3612 1cd2 9F4F      		sbci r25,-1
 3613 1cd4 FC01      		movw r30,r24
 3614 1cd6 3183      		std Z+1,r19
 3615 1cd8 2083      		st Z,r18
 3616 1cda 00C0      		rjmp .L167
 3617               	.L170:
 3618 1cdc 8091 0000 		lds r24,lowtime
 3619 1ce0 9091 0000 		lds r25,lowtime+1
 3620 1ce4 8C39      		cpi r24,-100
 3621 1ce6 9105      		cpc r25,__zero_reg__
 3622 1ce8 00F4      		brsh .L173
 3623 1cea 8B81      		ldd r24,Y+3
 3624 1cec 9C81      		ldd r25,Y+4
 3625 1cee 8B5B      		subi r24,-69
 3626 1cf0 9F4F      		sbci r25,-1
 3627 1cf2 FC01      		movw r30,r24
 3628 1cf4 8081      		ld r24,Z
 3629 1cf6 9181      		ldd r25,Z+1
 3630 1cf8 8933      		cpi r24,57
 3631 1cfa 9140      		sbci r25,1
 3632 1cfc 00F0      		brlo .L173
 3633 1cfe 8B81      		ldd r24,Y+3
 3634 1d00 9C81      		ldd r25,Y+4
 3635 1d02 60E0      		ldi r22,0
 3636 1d04 0E94 0000 		call addbit
 3637 1d08 2091 0000 		lds r18,hightime
 3638 1d0c 3091 0000 		lds r19,hightime+1
 3639 1d10 8B81      		ldd r24,Y+3
 3640 1d12 9C81      		ldd r25,Y+4
 3641 1d14 CF96      		adiw r24,63
 3642 1d16 FC01      		movw r30,r24
 3643 1d18 3183      		std Z+1,r19
 3644 1d1a 2083      		st Z,r18
 3645 1d1c 2091 0000 		lds r18,lowtime
 3646 1d20 3091 0000 		lds r19,lowtime+1
 3647 1d24 8B81      		ldd r24,Y+3
 3648 1d26 9C81      		ldd r25,Y+4
 3649 1d28 8F5B      		subi r24,-65
 3650 1d2a 9F4F      		sbci r25,-1
 3651 1d2c FC01      		movw r30,r24
 3652 1d2e 3183      		std Z+1,r19
 3653 1d30 2083      		st Z,r18
 3654 1d32 00C0      		rjmp .L167
 3655               	.L173:
 3656 1d34 8091 0000 		lds r24,lowtime
 3657 1d38 9091 0000 		lds r25,lowtime+1
 3658 1d3c 8D35      		cpi r24,93
 3659 1d3e 9105      		cpc r25,__zero_reg__
 3660 1d40 00F4      		brsh .L174
 3661 1d42 8B81      		ldd r24,Y+3
 3662 1d44 9C81      		ldd r25,Y+4
 3663 1d46 8B5B      		subi r24,-69
 3664 1d48 9F4F      		sbci r25,-1
 3665 1d4a FC01      		movw r30,r24
 3666 1d4c 8081      		ld r24,Z
 3667 1d4e 9181      		ldd r25,Z+1
 3668 1d50 8833      		cpi r24,56
 3669 1d52 9140      		sbci r25,1
 3670 1d54 00F4      		brsh .L174
 3671 1d56 8B81      		ldd r24,Y+3
 3672 1d58 9C81      		ldd r25,Y+4
 3673 1d5a 60E0      		ldi r22,0
 3674 1d5c 0E94 0000 		call addbit
 3675 1d60 2091 0000 		lds r18,hightime
 3676 1d64 3091 0000 		lds r19,hightime+1
 3677 1d68 8B81      		ldd r24,Y+3
 3678 1d6a 9C81      		ldd r25,Y+4
 3679 1d6c CF96      		adiw r24,63
 3680 1d6e FC01      		movw r30,r24
 3681 1d70 3183      		std Z+1,r19
 3682 1d72 2083      		st Z,r18
 3683 1d74 2091 0000 		lds r18,lowtime
 3684 1d78 3091 0000 		lds r19,lowtime+1
 3685 1d7c 8B81      		ldd r24,Y+3
 3686 1d7e 9C81      		ldd r25,Y+4
 3687 1d80 8F5B      		subi r24,-65
 3688 1d82 9F4F      		sbci r25,-1
 3689 1d84 FC01      		movw r30,r24
 3690 1d86 3183      		std Z+1,r19
 3691 1d88 2083      		st Z,r18
 3692 1d8a 00C0      		rjmp .L167
 3693               	.L174:
 3694 1d8c 8B81      		ldd r24,Y+3
 3695 1d8e 9C81      		ldd r25,Y+4
 3696 1d90 61E0      		ldi r22,lo8(1)
 3697 1d92 0E94 0000 		call addbit
 3698 1d96 2091 0000 		lds r18,hightime
 3699 1d9a 3091 0000 		lds r19,hightime+1
 3700 1d9e 8B81      		ldd r24,Y+3
 3701 1da0 9C81      		ldd r25,Y+4
 3702 1da2 FC01      		movw r30,r24
 3703 1da4 34AF      		std Z+60,r19
 3704 1da6 23AF      		std Z+59,r18
 3705 1da8 2091 0000 		lds r18,lowtime
 3706 1dac 3091 0000 		lds r19,lowtime+1
 3707 1db0 8B81      		ldd r24,Y+3
 3708 1db2 9C81      		ldd r25,Y+4
 3709 1db4 FC01      		movw r30,r24
 3710 1db6 36AF      		std Z+62,r19
 3711 1db8 25AF      		std Z+61,r18
 3712 1dba 00C0      		rjmp .L127
 3713               	.L167:
 3714 1dbc 00C0      		rjmp .L127
 3715               	.L151:
 3716 1dbe 8B81      		ldd r24,Y+3
 3717 1dc0 9C81      		ldd r25,Y+4
 3718 1dc2 40E0      		ldi r20,lo8(lowtime)
 3719 1dc4 50E0      		ldi r21,hi8(lowtime)
 3720 1dc6 60E0      		ldi r22,lo8(hightime)
 3721 1dc8 70E0      		ldi r23,hi8(hightime)
 3722 1dca 0E94 0000 		call addbit_revolt
 3723 1dce 00C0      		rjmp .L127
 3724               	.L147:
 3725 1dd0 8B81      		ldd r24,Y+3
 3726 1dd2 9C81      		ldd r25,Y+4
 3727 1dd4 FC01      		movw r30,r24
 3728 1dd6 2081      		ld r18,Z
 3729 1dd8 8091 0000 		lds r24,lowtime
 3730 1ddc 9091 0000 		lds r25,lowtime+1
 3731 1de0 482F      		mov r20,r24
 3732 1de2 8091 0000 		lds r24,hightime
 3733 1de6 9091 0000 		lds r25,hightime+1
 3734 1dea 382F      		mov r19,r24
 3735 1dec 8B81      		ldd r24,Y+3
 3736 1dee 9C81      		ldd r25,Y+4
 3737 1df0 CB96      		adiw r24,59
 3738 1df2 632F      		mov r22,r19
 3739 1df4 0E94 0000 		call wave_equals
 3740 1df8 8823      		tst r24
 3741 1dfa 01F0      		breq .L175
 3742 1dfc 8B81      		ldd r24,Y+3
 3743 1dfe 9C81      		ldd r25,Y+4
 3744 1e00 61E0      		ldi r22,lo8(1)
 3745 1e02 0E94 0000 		call addbit
 3746 1e06 8091 0000 		lds r24,hightime
 3747 1e0a 9091 0000 		lds r25,hightime+1
 3748 1e0e 282F      		mov r18,r24
 3749 1e10 8B81      		ldd r24,Y+3
 3750 1e12 9C81      		ldd r25,Y+4
 3751 1e14 FC01      		movw r30,r24
 3752 1e16 83AD      		ldd r24,Z+59
 3753 1e18 94AD      		ldd r25,Z+60
 3754 1e1a 622F      		mov r22,r18
 3755 1e1c 0E94 0000 		call makeavg
 3756 1e20 282F      		mov r18,r24
 3757 1e22 30E0      		ldi r19,0
 3758 1e24 8B81      		ldd r24,Y+3
 3759 1e26 9C81      		ldd r25,Y+4
 3760 1e28 FC01      		movw r30,r24
 3761 1e2a 34AF      		std Z+60,r19
 3762 1e2c 23AF      		std Z+59,r18
 3763 1e2e 8091 0000 		lds r24,lowtime
 3764 1e32 9091 0000 		lds r25,lowtime+1
 3765 1e36 282F      		mov r18,r24
 3766 1e38 8B81      		ldd r24,Y+3
 3767 1e3a 9C81      		ldd r25,Y+4
 3768 1e3c FC01      		movw r30,r24
 3769 1e3e 85AD      		ldd r24,Z+61
 3770 1e40 96AD      		ldd r25,Z+62
 3771 1e42 622F      		mov r22,r18
 3772 1e44 0E94 0000 		call makeavg
 3773 1e48 282F      		mov r18,r24
 3774 1e4a 30E0      		ldi r19,0
 3775 1e4c 8B81      		ldd r24,Y+3
 3776 1e4e 9C81      		ldd r25,Y+4
 3777 1e50 FC01      		movw r30,r24
 3778 1e52 36AF      		std Z+62,r19
 3779 1e54 25AF      		std Z+61,r18
 3780 1e56 00C0      		rjmp .L176
 3781               	.L175:
 3782 1e58 8B81      		ldd r24,Y+3
 3783 1e5a 9C81      		ldd r25,Y+4
 3784 1e5c FC01      		movw r30,r24
 3785 1e5e 2081      		ld r18,Z
 3786 1e60 8091 0000 		lds r24,lowtime
 3787 1e64 9091 0000 		lds r25,lowtime+1
 3788 1e68 482F      		mov r20,r24
 3789 1e6a 8091 0000 		lds r24,hightime
 3790 1e6e 9091 0000 		lds r25,hightime+1
 3791 1e72 382F      		mov r19,r24
 3792 1e74 8B81      		ldd r24,Y+3
 3793 1e76 9C81      		ldd r25,Y+4
 3794 1e78 C796      		adiw r24,55
 3795 1e7a 632F      		mov r22,r19
 3796 1e7c 0E94 0000 		call wave_equals
 3797 1e80 8823      		tst r24
 3798 1e82 01F0      		breq .L177
 3799 1e84 8B81      		ldd r24,Y+3
 3800 1e86 9C81      		ldd r25,Y+4
 3801 1e88 60E0      		ldi r22,0
 3802 1e8a 0E94 0000 		call addbit
 3803 1e8e 8091 0000 		lds r24,hightime
 3804 1e92 9091 0000 		lds r25,hightime+1
 3805 1e96 282F      		mov r18,r24
 3806 1e98 8B81      		ldd r24,Y+3
 3807 1e9a 9C81      		ldd r25,Y+4
 3808 1e9c FC01      		movw r30,r24
 3809 1e9e 87A9      		ldd r24,Z+55
 3810 1ea0 90AD      		ldd r25,Z+56
 3811 1ea2 622F      		mov r22,r18
 3812 1ea4 0E94 0000 		call makeavg
 3813 1ea8 282F      		mov r18,r24
 3814 1eaa 30E0      		ldi r19,0
 3815 1eac 8B81      		ldd r24,Y+3
 3816 1eae 9C81      		ldd r25,Y+4
 3817 1eb0 FC01      		movw r30,r24
 3818 1eb2 30AF      		std Z+56,r19
 3819 1eb4 27AB      		std Z+55,r18
 3820 1eb6 8091 0000 		lds r24,lowtime
 3821 1eba 9091 0000 		lds r25,lowtime+1
 3822 1ebe 282F      		mov r18,r24
 3823 1ec0 8B81      		ldd r24,Y+3
 3824 1ec2 9C81      		ldd r25,Y+4
 3825 1ec4 FC01      		movw r30,r24
 3826 1ec6 81AD      		ldd r24,Z+57
 3827 1ec8 92AD      		ldd r25,Z+58
 3828 1eca 622F      		mov r22,r18
 3829 1ecc 0E94 0000 		call makeavg
 3830 1ed0 282F      		mov r18,r24
 3831 1ed2 30E0      		ldi r19,0
 3832 1ed4 8B81      		ldd r24,Y+3
 3833 1ed6 9C81      		ldd r25,Y+4
 3834 1ed8 FC01      		movw r30,r24
 3835 1eda 32AF      		std Z+58,r19
 3836 1edc 21AF      		std Z+57,r18
 3837 1ede 00C0      		rjmp .L176
 3838               	.L177:
 3839 1ee0 0E94 0000 		call reset_input
 3840               	.L176:
 3841 1ee4 0000      		nop
 3842               	.L127:
 3843               	/* epilogue start */
 3844 1ee6 0F90      		pop __tmp_reg__
 3845 1ee8 0F90      		pop __tmp_reg__
 3846 1eea 0F90      		pop __tmp_reg__
 3847 1eec 0F90      		pop __tmp_reg__
 3848 1eee DF91      		pop r29
 3849 1ef0 CF91      		pop r28
 3850 1ef2 FF91      		pop r31
 3851 1ef4 EF91      		pop r30
 3852 1ef6 BF91      		pop r27
 3853 1ef8 AF91      		pop r26
 3854 1efa 9F91      		pop r25
 3855 1efc 8F91      		pop r24
 3856 1efe 7F91      		pop r23
 3857 1f00 6F91      		pop r22
 3858 1f02 5F91      		pop r21
 3859 1f04 4F91      		pop r20
 3860 1f06 3F91      		pop r19
 3861 1f08 2F91      		pop r18
 3862 1f0a 0F90      		pop r0
 3863 1f0c 0092 5F00 		sts 95,r0
 3864 1f10 0F90      		pop r0
 3865 1f12 1F90      		pop r1
 3866 1f14 1895      		reti
 3868               	.global	rf_isreceiving
 3870               	rf_isreceiving:
 3871 1f16 A1E0      		ldi r26,lo8(1)
 3872 1f18 B0E0      		ldi r27,0
 3873 1f1a E0E0      		ldi r30,lo8(gs(1f))
 3874 1f1c F0E0      		ldi r31,hi8(gs(1f))
 3875 1f1e 0C94 0000 		jmp __prologue_saves__+((18 - 2) * 2)
 3876               	1:
 3877               	/* prologue: function */
 3878               	/* frame size = 1 */
 3879               	/* stack size = 3 */
 3880               	.L__stack_usage = 3
 3881 1f22 8091 0000 		lds r24,bucket_in
 3882 1f26 282F      		mov r18,r24
 3883 1f28 30E0      		ldi r19,0
 3884 1f2a 49E4      		ldi r20,lo8(73)
 3885 1f2c 429F      		mul r20,r18
 3886 1f2e C001      		movw r24,r0
 3887 1f30 439F      		mul r20,r19
 3888 1f32 900D      		add r25,r0
 3889 1f34 1124      		clr __zero_reg__
 3890 1f36 8050      		subi r24,lo8(-(bucket_array))
 3891 1f38 9040      		sbci r25,hi8(-(bucket_array))
 3892 1f3a FC01      		movw r30,r24
 3893 1f3c 9081      		ld r25,Z
 3894 1f3e 81E0      		ldi r24,lo8(1)
 3895 1f40 9923      		tst r25
 3896 1f42 01F4      		brne .L179
 3897 1f44 80E0      		ldi r24,0
 3898               	.L179:
 3899 1f46 8983      		std Y+1,r24
 3900 1f48 8981      		ldd r24,Y+1
 3901               	/* epilogue start */
 3902 1f4a 2196      		adiw r28,1
 3903 1f4c E2E0      		ldi r30, lo8(2)
 3904 1f4e 0C94 0000 		jmp __epilogue_restores__ + ((18 - 2) * 2)
 3906               		.section	.progmem.data,"a",@progbits
 3909               	__c.2337:
 3910 0000 424F 5646 		.string	"BOVF\r\n"
 3910      0D0A 00
 3911               		.ident	"GCC: (AVR_8_bit_GNU_Toolchain_3.5.0_1662) 4.9.2"
 3912               	.global __do_clear_bss
DEFINED SYMBOLS
                            *ABS*:00000000 rf_receive.c
C:\Users\Benny\AppData\Local\Temp\ccjuSRpB.s:2      *ABS*:0000003e __SP_H__
C:\Users\Benny\AppData\Local\Temp\ccjuSRpB.s:3      *ABS*:0000003d __SP_L__
C:\Users\Benny\AppData\Local\Temp\ccjuSRpB.s:4      *ABS*:0000003f __SREG__
C:\Users\Benny\AppData\Local\Temp\ccjuSRpB.s:5      *ABS*:00000000 __tmp_reg__
C:\Users\Benny\AppData\Local\Temp\ccjuSRpB.s:6      *ABS*:00000001 __zero_reg__
                            *COM*:00000001 packetCheckValues
                            *COM*:00000001 tx_report
                             .bss:00000000 obuf
C:\Users\Benny\AppData\Local\Temp\ccjuSRpB.s:10     .bss:00000032 bucket_array
C:\Users\Benny\AppData\Local\Temp\ccjuSRpB.s:12     .bss:000000c4 bucket_in
C:\Users\Benny\AppData\Local\Temp\ccjuSRpB.s:14     .bss:000000c5 bucket_out
C:\Users\Benny\AppData\Local\Temp\ccjuSRpB.s:16     .bss:000000c6 bucket_nrused
C:\Users\Benny\AppData\Local\Temp\ccjuSRpB.s:18     .bss:000000c7 nibble
C:\Users\Benny\AppData\Local\Temp\ccjuSRpB.s:20     .bss:000000c8 roby
C:\Users\Benny\AppData\Local\Temp\ccjuSRpB.s:22     .bss:000000c9 robuf
C:\Users\Benny\AppData\Local\Temp\ccjuSRpB.s:24     .bss:000000fb reptime
C:\Users\Benny\AppData\Local\Temp\ccjuSRpB.s:26     .bss:000000ff maxLevel
C:\Users\Benny\AppData\Local\Temp\ccjuSRpB.s:28     .bss:00000101 hightime
C:\Users\Benny\AppData\Local\Temp\ccjuSRpB.s:30     .bss:00000103 lowtime
C:\Users\Benny\AppData\Local\Temp\ccjuSRpB.s:36     .text:00000000 tx_init
C:\Users\Benny\AppData\Local\Temp\ccjuSRpB.s:123    .text:000000a0 set_txrestore
C:\Users\Benny\AppData\Local\Temp\ccjuSRpB.s:149    .text:000000c8 set_txreport
C:\Users\Benny\AppData\Local\Temp\ccjuSRpB.s:195    .text:00000120 cksum1
C:\Users\Benny\AppData\Local\Temp\ccjuSRpB.s:239    .text:00000164 cksum2
C:\Users\Benny\AppData\Local\Temp\ccjuSRpB.s:283    .text:000001a8 cksum3
C:\Users\Benny\AppData\Local\Temp\ccjuSRpB.s:376    .text:0000024e analyze
C:\Users\Benny\AppData\Local\Temp\ccjuSRpB.s:701    .text:0000049a checkForRepeatedPackage
C:\Users\Benny\AppData\Local\Temp\ccjuSRpB.s:775    .text:00000530 analyseMC
C:\Users\Benny\AppData\Local\Temp\ccjuSRpB.s:894    .text:00000608 RfAnalyze_Task
C:\Users\Benny\AppData\Local\Temp\ccjuSRpB.s:2153   .text:0000108c wave_equals
C:\Users\Benny\AppData\Local\Temp\ccjuSRpB.s:2337   .text:000011d6 delbit
C:\Users\Benny\AppData\Local\Temp\ccjuSRpB.s:1960   .text:00000f0c reset_input
C:\Users\Benny\AppData\Local\Temp\ccjuSRpB.s:2004   .text:00000f5e __vector_13
C:\Users\Benny\AppData\Local\Temp\ccjuSRpB.s:3909   .progmem.data:00000000 __c.2337
C:\Users\Benny\AppData\Local\Temp\ccjuSRpB.s:2295   .text:00001194 check_rf_sync
C:\Users\Benny\AppData\Local\Temp\ccjuSRpB.s:2383   .text:00001222 calcOcrValue
C:\Users\Benny\AppData\Local\Temp\ccjuSRpB.s:32     .bss:00000105 count_half
C:\Users\Benny\AppData\Local\Temp\ccjuSRpB.s:2535   .text:00001358 __vector_3
C:\Users\Benny\AppData\Local\Temp\ccjuSRpB.s:3870   .text:00001f16 rf_isreceiving

UNDEFINED SYMBOLS
__prologue_saves__
credit_10ms
cc_on
__epilogue_restores__
set_ccon
ccRX
set_ccoff
display_hex2
display_udec
display_nl
fromhex
frequencyMode
cc1100_readReg
display_char
analyze_intertechno
analyze_tcm97001
analyze_revolt
analyze_tx3
addbit
ticks
display_hex
display_string_P
fastrf_on
makeavg
is_revolt
addbit_revolt
__do_clear_bss
