   1               		.file	"somfy_rts.c"
   2               	__SP_H__ = 0x3e
   3               	__SP_L__ = 0x3d
   4               	__SREG__ = 0x3f
   5               	__tmp_reg__ = 0
   6               	__zero_reg__ = 1
   7               		.comm	packetCheckValues,1,1
   8               		.local	somfy_rts_on
   9               		.comm	somfy_rts_on,1,1
  10               	.global	CC1100_SOMFY_RTS_CFG
  11               		.section	.progmem.data,"a",@progbits
  14               	CC1100_SOMFY_RTS_CFG:
  15 0000 0D        		.byte	13
  16 0001 2E        		.byte	46
  17 0002 2D        		.byte	45
  18 0003 07        		.byte	7
  19 0004 D3        		.byte	-45
  20 0005 91        		.byte	-111
  21 0006 3D        		.byte	61
  22 0007 04        		.byte	4
  23 0008 32        		.byte	50
  24 0009 00        		.byte	0
  25 000a 00        		.byte	0
  26 000b 06        		.byte	6
  27 000c 00        		.byte	0
  28 000d 10        		.byte	16
  29 000e AB        		.byte	-85
  30 000f A5        		.byte	-91
  31 0010 55        		.byte	85
  32 0011 0A        		.byte	10
  33 0012 30        		.byte	48
  34 0013 23        		.byte	35
  35 0014 B9        		.byte	-71
  36 0015 00        		.byte	0
  37 0016 07        		.byte	7
  38 0017 00        		.byte	0
  39 0018 18        		.byte	24
  40 0019 14        		.byte	20
  41 001a 6C        		.byte	108
  42 001b 07        		.byte	7
  43 001c 00        		.byte	0
  44 001d 90        		.byte	-112
  45 001e 87        		.byte	-121
  46 001f 6B        		.byte	107
  47 0020 F8        		.byte	-8
  48 0021 56        		.byte	86
  49 0022 11        		.byte	17
  50 0023 E9        		.byte	-23
  51 0024 2A        		.byte	42
  52 0025 00        		.byte	0
  53 0026 1F        		.byte	31
  54 0027 41        		.byte	65
  55 0028 00        		.byte	0
  56               	.global	somfy_restore_asksin
  57               		.section .bss
  60               	somfy_restore_asksin:
  61 0000 00        		.zero	1
  62               	.global	somfy_restore_moritz
  65               	somfy_restore_moritz:
  66 0001 00        		.zero	1
  67               	.global	somfy_rts_repetition
  68               		.data
  71               	somfy_rts_repetition:
  72 0000 06        		.byte	6
  73               	.global	somfy_rts_interval
  76               	somfy_rts_interval:
  77 0001 D804      		.word	1240
  78               	.global	somfy_rts_interval_half
  81               	somfy_rts_interval_half:
  82 0003 6C02      		.word	620
  83               		.text
  85               	somfy_rts_tunein:
  86 0000 A7E0      		ldi r26,lo8(7)
  87 0002 B0E0      		ldi r27,0
  88 0004 E0E0      		ldi r30,lo8(gs(1f))
  89 0006 F0E0      		ldi r31,hi8(gs(1f))
  90 0008 0C94 0000 		jmp __prologue_saves__+((18 - 2) * 2)
  91               	1:
  92               	/* prologue: function */
  93               	/* frame size = 7 */
  94               	/* stack size = 9 */
  95               	.L__stack_usage = 9
  96 000c 8DE3      		ldi r24,lo8(61)
  97 000e 90E0      		ldi r25,0
  98 0010 2DE3      		ldi r18,lo8(61)
  99 0012 30E0      		ldi r19,0
 100 0014 F901      		movw r30,r18
 101 0016 2081      		ld r18,Z
 102 0018 2B7F      		andi r18,lo8(-5)
 103 001a FC01      		movw r30,r24
 104 001c 2083      		st Z,r18
 105 001e 84E2      		ldi r24,lo8(36)
 106 0020 90E0      		ldi r25,0
 107 0022 24E2      		ldi r18,lo8(36)
 108 0024 30E0      		ldi r19,0
 109 0026 F901      		movw r30,r18
 110 0028 2081      		ld r18,Z
 111 002a 2061      		ori r18,lo8(16)
 112 002c FC01      		movw r30,r24
 113 002e 2083      		st Z,r18
 114 0030 85E2      		ldi r24,lo8(37)
 115 0032 90E0      		ldi r25,0
 116 0034 25E2      		ldi r18,lo8(37)
 117 0036 30E0      		ldi r19,0
 118 0038 F901      		movw r30,r18
 119 003a 2081      		ld r18,Z
 120 003c 2061      		ori r18,lo8(16)
 121 003e FC01      		movw r30,r24
 122 0040 2083      		st Z,r18
 123 0042 8EE1      		ldi r24,lo8(30)
 124 0044 90E0      		ldi r25,0
 125 0046 0E94 0000 		call my_delay_us
 126 004a 85E2      		ldi r24,lo8(37)
 127 004c 90E0      		ldi r25,0
 128 004e 25E2      		ldi r18,lo8(37)
 129 0050 30E0      		ldi r19,0
 130 0052 F901      		movw r30,r18
 131 0054 2081      		ld r18,Z
 132 0056 2F7E      		andi r18,lo8(-17)
 133 0058 FC01      		movw r30,r24
 134 005a 2083      		st Z,r18
 135 005c 8EE1      		ldi r24,lo8(30)
 136 005e 90E0      		ldi r25,0
 137 0060 0E94 0000 		call my_delay_us
 138 0064 85E2      		ldi r24,lo8(37)
 139 0066 90E0      		ldi r25,0
 140 0068 25E2      		ldi r18,lo8(37)
 141 006a 30E0      		ldi r19,0
 142 006c F901      		movw r30,r18
 143 006e 2081      		ld r18,Z
 144 0070 2061      		ori r18,lo8(16)
 145 0072 FC01      		movw r30,r24
 146 0074 2083      		st Z,r18
 147 0076 8DE2      		ldi r24,lo8(45)
 148 0078 90E0      		ldi r25,0
 149 007a 0E94 0000 		call my_delay_us
 150 007e 80E3      		ldi r24,lo8(48)
 151 0080 0E94 0000 		call ccStrobe
 152 0084 84E6      		ldi r24,lo8(100)
 153 0086 90E0      		ldi r25,0
 154 0088 0E94 0000 		call my_delay_us
 155 008c 85E2      		ldi r24,lo8(37)
 156 008e 90E0      		ldi r25,0
 157 0090 25E2      		ldi r18,lo8(37)
 158 0092 30E0      		ldi r19,0
 159 0094 F901      		movw r30,r18
 160 0096 2081      		ld r18,Z
 161 0098 2F7E      		andi r18,lo8(-17)
 162 009a FC01      		movw r30,r24
 163 009c 2083      		st Z,r18
 164 009e 80E4      		ldi r24,lo8(64)
 165 00a0 0E94 0000 		call cc1100_sendbyte
 166 00a4 1982      		std Y+1,__zero_reg__
 167 00a6 00C0      		rjmp .L2
 168               	.L3:
 169 00a8 8981      		ldd r24,Y+1
 170 00aa 882F      		mov r24,r24
 171 00ac 90E0      		ldi r25,0
 172 00ae 8050      		subi r24,lo8(-(CC1100_SOMFY_RTS_CFG))
 173 00b0 9040      		sbci r25,hi8(-(CC1100_SOMFY_RTS_CFG))
 174 00b2 9E83      		std Y+6,r25
 175 00b4 8D83      		std Y+5,r24
 176 00b6 8D81      		ldd r24,Y+5
 177 00b8 9E81      		ldd r25,Y+6
 178 00ba FC01      		movw r30,r24
 179               	/* #APP */
 180               	 ;  139 "../../clib/somfy_rts.c" 1
 181 00bc 8491      		lpm r24, Z
 182               		
 183               	 ;  0 "" 2
 184               	/* #NOAPP */
 185 00be 8F83      		std Y+7,r24
 186 00c0 8F81      		ldd r24,Y+7
 187 00c2 0E94 0000 		call cc1100_sendbyte
 188 00c6 8981      		ldd r24,Y+1
 189 00c8 8F5F      		subi r24,lo8(-(1))
 190 00ca 8983      		std Y+1,r24
 191               	.L2:
 192 00cc 8981      		ldd r24,Y+1
 193 00ce 8932      		cpi r24,lo8(41)
 194 00d0 00F0      		brlo .L3
 195 00d2 85E2      		ldi r24,lo8(37)
 196 00d4 90E0      		ldi r25,0
 197 00d6 25E2      		ldi r18,lo8(37)
 198 00d8 30E0      		ldi r19,0
 199 00da F901      		movw r30,r18
 200 00dc 2081      		ld r18,Z
 201 00de 2061      		ori r18,lo8(16)
 202 00e0 FC01      		movw r30,r24
 203 00e2 2083      		st Z,r18
 204 00e4 8BE2      		ldi r24,lo8(43)
 205 00e6 90E0      		ldi r25,0
 206 00e8 9B83      		std Y+3,r25
 207 00ea 8A83      		std Y+2,r24
 208 00ec 85E2      		ldi r24,lo8(37)
 209 00ee 90E0      		ldi r25,0
 210 00f0 25E2      		ldi r18,lo8(37)
 211 00f2 30E0      		ldi r19,0
 212 00f4 F901      		movw r30,r18
 213 00f6 2081      		ld r18,Z
 214 00f8 2F7E      		andi r18,lo8(-17)
 215 00fa FC01      		movw r30,r24
 216 00fc 2083      		st Z,r18
 217 00fe 8EE7      		ldi r24,lo8(126)
 218 0100 0E94 0000 		call cc1100_sendbyte
 219 0104 1C82      		std Y+4,__zero_reg__
 220 0106 00C0      		rjmp .L4
 221               	.L5:
 222 0108 8A81      		ldd r24,Y+2
 223 010a 9B81      		ldd r25,Y+3
 224 010c 9C01      		movw r18,r24
 225 010e 2F5F      		subi r18,-1
 226 0110 3F4F      		sbci r19,-1
 227 0112 3B83      		std Y+3,r19
 228 0114 2A83      		std Y+2,r18
 229 0116 0E94 0000 		call erb
 230 011a 0E94 0000 		call cc1100_sendbyte
 231 011e 8C81      		ldd r24,Y+4
 232 0120 8F5F      		subi r24,lo8(-(1))
 233 0122 8C83      		std Y+4,r24
 234               	.L4:
 235 0124 8C81      		ldd r24,Y+4
 236 0126 8830      		cpi r24,lo8(8)
 237 0128 00F0      		brlo .L5
 238 012a 85E2      		ldi r24,lo8(37)
 239 012c 90E0      		ldi r25,0
 240 012e 25E2      		ldi r18,lo8(37)
 241 0130 30E0      		ldi r19,0
 242 0132 F901      		movw r30,r18
 243 0134 2081      		ld r18,Z
 244 0136 2061      		ori r18,lo8(16)
 245 0138 FC01      		movw r30,r24
 246 013a 2083      		st Z,r18
 247 013c 83E3      		ldi r24,lo8(51)
 248 013e 0E94 0000 		call ccStrobe
 249 0142 81E0      		ldi r24,lo8(1)
 250 0144 0E94 0000 		call my_delay_ms
 251 0148 81E0      		ldi r24,lo8(1)
 252 014a 8093 0000 		sts cc_on,r24
 253 014e 0E94 0000 		call checkFrequency
 254               	/* epilogue start */
 255 0152 2796      		adiw r28,7
 256 0154 E2E0      		ldi r30, lo8(2)
 257 0156 0C94 0000 		jmp __epilogue_restores__ + ((18 - 2) * 2)
 260               	send_somfy_rts_bitZero:
 261 015a A0E0      		ldi r26,0
 262 015c B0E0      		ldi r27,0
 263 015e E0E0      		ldi r30,lo8(gs(1f))
 264 0160 F0E0      		ldi r31,hi8(gs(1f))
 265 0162 0C94 0000 		jmp __prologue_saves__+((18 - 2) * 2)
 266               	1:
 267               	/* prologue: function */
 268               	/* frame size = 0 */
 269               	/* stack size = 2 */
 270               	.L__stack_usage = 2
 271 0166 85E2      		ldi r24,lo8(37)
 272 0168 90E0      		ldi r25,0
 273 016a 25E2      		ldi r18,lo8(37)
 274 016c 30E0      		ldi r19,0
 275 016e F901      		movw r30,r18
 276 0170 2081      		ld r18,Z
 277 0172 2860      		ori r18,lo8(8)
 278 0174 FC01      		movw r30,r24
 279 0176 2083      		st Z,r18
 280 0178 8091 0000 		lds r24,somfy_rts_interval_half
 281 017c 9091 0000 		lds r25,somfy_rts_interval_half+1
 282 0180 0E94 0000 		call my_delay_us
 283 0184 85E2      		ldi r24,lo8(37)
 284 0186 90E0      		ldi r25,0
 285 0188 25E2      		ldi r18,lo8(37)
 286 018a 30E0      		ldi r19,0
 287 018c F901      		movw r30,r18
 288 018e 2081      		ld r18,Z
 289 0190 277F      		andi r18,lo8(-9)
 290 0192 FC01      		movw r30,r24
 291 0194 2083      		st Z,r18
 292 0196 8091 0000 		lds r24,somfy_rts_interval_half
 293 019a 9091 0000 		lds r25,somfy_rts_interval_half+1
 294 019e 0E94 0000 		call my_delay_us
 295               	/* epilogue start */
 296 01a2 E2E0      		ldi r30, lo8(2)
 297 01a4 0C94 0000 		jmp __epilogue_restores__ + ((18 - 2) * 2)
 300               	send_somfy_rts_bitOne:
 301 01a8 A0E0      		ldi r26,0
 302 01aa B0E0      		ldi r27,0
 303 01ac E0E0      		ldi r30,lo8(gs(1f))
 304 01ae F0E0      		ldi r31,hi8(gs(1f))
 305 01b0 0C94 0000 		jmp __prologue_saves__+((18 - 2) * 2)
 306               	1:
 307               	/* prologue: function */
 308               	/* frame size = 0 */
 309               	/* stack size = 2 */
 310               	.L__stack_usage = 2
 311 01b4 85E2      		ldi r24,lo8(37)
 312 01b6 90E0      		ldi r25,0
 313 01b8 25E2      		ldi r18,lo8(37)
 314 01ba 30E0      		ldi r19,0
 315 01bc F901      		movw r30,r18
 316 01be 2081      		ld r18,Z
 317 01c0 277F      		andi r18,lo8(-9)
 318 01c2 FC01      		movw r30,r24
 319 01c4 2083      		st Z,r18
 320 01c6 8091 0000 		lds r24,somfy_rts_interval_half
 321 01ca 9091 0000 		lds r25,somfy_rts_interval_half+1
 322 01ce 0E94 0000 		call my_delay_us
 323 01d2 85E2      		ldi r24,lo8(37)
 324 01d4 90E0      		ldi r25,0
 325 01d6 25E2      		ldi r18,lo8(37)
 326 01d8 30E0      		ldi r19,0
 327 01da F901      		movw r30,r18
 328 01dc 2081      		ld r18,Z
 329 01de 2860      		ori r18,lo8(8)
 330 01e0 FC01      		movw r30,r24
 331 01e2 2083      		st Z,r18
 332 01e4 8091 0000 		lds r24,somfy_rts_interval_half
 333 01e8 9091 0000 		lds r25,somfy_rts_interval_half+1
 334 01ec 0E94 0000 		call my_delay_us
 335               	/* epilogue start */
 336 01f0 E2E0      		ldi r30, lo8(2)
 337 01f2 0C94 0000 		jmp __epilogue_restores__ + ((18 - 2) * 2)
 340               	send_somfy_rts_frame:
 341 01f6 A9E0      		ldi r26,lo8(9)
 342 01f8 B0E0      		ldi r27,0
 343 01fa E0E0      		ldi r30,lo8(gs(1f))
 344 01fc F0E0      		ldi r31,hi8(gs(1f))
 345 01fe 0C94 0000 		jmp __prologue_saves__+((18 - 2) * 2)
 346               	1:
 347               	/* prologue: function */
 348               	/* frame size = 9 */
 349               	/* stack size = 11 */
 350               	.L__stack_usage = 11
 351 0202 9887      		std Y+8,r25
 352 0204 8F83      		std Y+7,r24
 353 0206 6987      		std Y+9,r22
 354 0208 1982      		std Y+1,__zero_reg__
 355 020a 00C0      		rjmp .L9
 356               	.L10:
 357 020c 85E2      		ldi r24,lo8(37)
 358 020e 90E0      		ldi r25,0
 359 0210 25E2      		ldi r18,lo8(37)
 360 0212 30E0      		ldi r19,0
 361 0214 F901      		movw r30,r18
 362 0216 2081      		ld r18,Z
 363 0218 2860      		ori r18,lo8(8)
 364 021a FC01      		movw r30,r24
 365 021c 2083      		st Z,r18
 366 021e 86EF      		ldi r24,lo8(-10)
 367 0220 99E0      		ldi r25,lo8(9)
 368 0222 0E94 0000 		call my_delay_us
 369 0226 85E2      		ldi r24,lo8(37)
 370 0228 90E0      		ldi r25,0
 371 022a 25E2      		ldi r18,lo8(37)
 372 022c 30E0      		ldi r19,0
 373 022e F901      		movw r30,r18
 374 0230 2081      		ld r18,Z
 375 0232 277F      		andi r18,lo8(-9)
 376 0234 FC01      		movw r30,r24
 377 0236 2083      		st Z,r18
 378 0238 86EF      		ldi r24,lo8(-10)
 379 023a 99E0      		ldi r25,lo8(9)
 380 023c 0E94 0000 		call my_delay_us
 381 0240 8981      		ldd r24,Y+1
 382 0242 8F5F      		subi r24,lo8(-(1))
 383 0244 8983      		std Y+1,r24
 384               	.L9:
 385 0246 9981      		ldd r25,Y+1
 386 0248 8985      		ldd r24,Y+9
 387 024a 9817      		cp r25,r24
 388 024c 04F0      		brlt .L10
 389 024e 85E2      		ldi r24,lo8(37)
 390 0250 90E0      		ldi r25,0
 391 0252 25E2      		ldi r18,lo8(37)
 392 0254 30E0      		ldi r19,0
 393 0256 F901      		movw r30,r18
 394 0258 2081      		ld r18,Z
 395 025a 2860      		ori r18,lo8(8)
 396 025c FC01      		movw r30,r24
 397 025e 2083      		st Z,r18
 398 0260 8CEF      		ldi r24,lo8(-4)
 399 0262 92E1      		ldi r25,lo8(18)
 400 0264 0E94 0000 		call my_delay_us
 401 0268 85E2      		ldi r24,lo8(37)
 402 026a 90E0      		ldi r25,0
 403 026c 25E2      		ldi r18,lo8(37)
 404 026e 30E0      		ldi r19,0
 405 0270 F901      		movw r30,r18
 406 0272 2081      		ld r18,Z
 407 0274 277F      		andi r18,lo8(-9)
 408 0276 FC01      		movw r30,r24
 409 0278 2083      		st Z,r18
 410 027a 8091 0000 		lds r24,somfy_rts_interval_half
 411 027e 9091 0000 		lds r25,somfy_rts_interval_half+1
 412 0282 0E94 0000 		call my_delay_us
 413 0286 1A82      		std Y+2,__zero_reg__
 414 0288 00C0      		rjmp .L11
 415               	.L16:
 416 028a 80E8      		ldi r24,lo8(-128)
 417 028c 90E0      		ldi r25,0
 418 028e 9C83      		std Y+4,r25
 419 0290 8B83      		std Y+3,r24
 420 0292 8A81      		ldd r24,Y+2
 421 0294 082E      		mov __tmp_reg__,r24
 422 0296 000C      		lsl r0
 423 0298 990B      		sbc r25,r25
 424 029a 2F81      		ldd r18,Y+7
 425 029c 3885      		ldd r19,Y+8
 426 029e 820F      		add r24,r18
 427 02a0 931F      		adc r25,r19
 428 02a2 FC01      		movw r30,r24
 429 02a4 8081      		ld r24,Z
 430 02a6 8E83      		std Y+6,r24
 431 02a8 1D82      		std Y+5,__zero_reg__
 432 02aa 00C0      		rjmp .L12
 433               	.L15:
 434 02ac 8E81      		ldd r24,Y+6
 435 02ae 282F      		mov r18,r24
 436 02b0 30E0      		ldi r19,0
 437 02b2 8B81      		ldd r24,Y+3
 438 02b4 9C81      		ldd r25,Y+4
 439 02b6 8223      		and r24,r18
 440 02b8 9323      		and r25,r19
 441 02ba 892B      		or r24,r25
 442 02bc 01F4      		brne .L13
 443 02be 0E94 0000 		call send_somfy_rts_bitZero
 444 02c2 00C0      		rjmp .L14
 445               	.L13:
 446 02c4 0E94 0000 		call send_somfy_rts_bitOne
 447               	.L14:
 448 02c8 8B81      		ldd r24,Y+3
 449 02ca 9C81      		ldd r25,Y+4
 450 02cc 9695      		lsr r25
 451 02ce 8795      		ror r24
 452 02d0 9C83      		std Y+4,r25
 453 02d2 8B83      		std Y+3,r24
 454 02d4 8D81      		ldd r24,Y+5
 455 02d6 8F5F      		subi r24,lo8(-(1))
 456 02d8 8D83      		std Y+5,r24
 457               	.L12:
 458 02da 8D81      		ldd r24,Y+5
 459 02dc 8830      		cpi r24,lo8(8)
 460 02de 04F0      		brlt .L15
 461 02e0 8A81      		ldd r24,Y+2
 462 02e2 8F5F      		subi r24,lo8(-(1))
 463 02e4 8A83      		std Y+2,r24
 464               	.L11:
 465 02e6 8A81      		ldd r24,Y+2
 466 02e8 8730      		cpi r24,lo8(7)
 467 02ea 04F0      		brlt .L16
 468 02ec 85E2      		ldi r24,lo8(37)
 469 02ee 90E0      		ldi r25,0
 470 02f0 25E2      		ldi r18,lo8(37)
 471 02f2 30E0      		ldi r19,0
 472 02f4 F901      		movw r30,r18
 473 02f6 2081      		ld r18,Z
 474 02f8 277F      		andi r18,lo8(-9)
 475 02fa FC01      		movw r30,r24
 476 02fc 2083      		st Z,r18
 477 02fe 80E0      		ldi r24,0
 478 0300 90E0      		ldi r25,0
 479 0302 0E94 0000 		call my_delay_us
 480               	/* epilogue start */
 481 0306 2996      		adiw r28,9
 482 0308 E2E0      		ldi r30, lo8(2)
 483 030a 0C94 0000 		jmp __epilogue_restores__ + ((18 - 2) * 2)
 486               	somfy_rts_calc_checksum:
 487 030e A4E0      		ldi r26,lo8(4)
 488 0310 B0E0      		ldi r27,0
 489 0312 E0E0      		ldi r30,lo8(gs(1f))
 490 0314 F0E0      		ldi r31,hi8(gs(1f))
 491 0316 0C94 0000 		jmp __prologue_saves__+((18 - 2) * 2)
 492               	1:
 493               	/* prologue: function */
 494               	/* frame size = 4 */
 495               	/* stack size = 6 */
 496               	.L__stack_usage = 6
 497 031a 9C83      		std Y+4,r25
 498 031c 8B83      		std Y+3,r24
 499 031e 1982      		std Y+1,__zero_reg__
 500 0320 1A82      		std Y+2,__zero_reg__
 501 0322 00C0      		rjmp .L18
 502               	.L19:
 503 0324 8A81      		ldd r24,Y+2
 504 0326 082E      		mov __tmp_reg__,r24
 505 0328 000C      		lsl r0
 506 032a 990B      		sbc r25,r25
 507 032c 2B81      		ldd r18,Y+3
 508 032e 3C81      		ldd r19,Y+4
 509 0330 820F      		add r24,r18
 510 0332 931F      		adc r25,r19
 511 0334 FC01      		movw r30,r24
 512 0336 9081      		ld r25,Z
 513 0338 8981      		ldd r24,Y+1
 514 033a 492F      		mov r20,r25
 515 033c 4827      		eor r20,r24
 516 033e 8A81      		ldd r24,Y+2
 517 0340 082E      		mov __tmp_reg__,r24
 518 0342 000C      		lsl r0
 519 0344 990B      		sbc r25,r25
 520 0346 2B81      		ldd r18,Y+3
 521 0348 3C81      		ldd r19,Y+4
 522 034a 820F      		add r24,r18
 523 034c 931F      		adc r25,r19
 524 034e FC01      		movw r30,r24
 525 0350 8081      		ld r24,Z
 526 0352 8295      		swap r24
 527 0354 8F70      		andi r24,lo8(15)
 528 0356 8427      		eor r24,r20
 529 0358 8983      		std Y+1,r24
 530 035a 8A81      		ldd r24,Y+2
 531 035c 8F5F      		subi r24,lo8(-(1))
 532 035e 8A83      		std Y+2,r24
 533               	.L18:
 534 0360 8A81      		ldd r24,Y+2
 535 0362 8730      		cpi r24,lo8(7)
 536 0364 04F0      		brlt .L19
 537 0366 8981      		ldd r24,Y+1
 538               	/* epilogue start */
 539 0368 2496      		adiw r28,4
 540 036a E2E0      		ldi r30, lo8(2)
 541 036c 0C94 0000 		jmp __epilogue_restores__ + ((18 - 2) * 2)
 544               	somfy_rts_send:
 545 0370 A9E0      		ldi r26,lo8(9)
 546 0372 B0E0      		ldi r27,0
 547 0374 E0E0      		ldi r30,lo8(gs(1f))
 548 0376 F0E0      		ldi r31,hi8(gs(1f))
 549 0378 0C94 0000 		jmp __prologue_saves__+((18 - 2) * 2)
 550               	1:
 551               	/* prologue: function */
 552               	/* frame size = 9 */
 553               	/* stack size = 11 */
 554               	.L__stack_usage = 11
 555 037c 9987      		std Y+9,r25
 556 037e 8887      		std Y+8,r24
 557 0380 1F82      		std Y+7,__zero_reg__
 558 0382 87E0      		ldi r24,lo8(7)
 559 0384 90E0      		ldi r25,0
 560 0386 0E94 0000 		call malloc
 561 038a 9C83      		std Y+4,r25
 562 038c 8B83      		std Y+3,r24
 563 038e 8885      		ldd r24,Y+8
 564 0390 9985      		ldd r25,Y+9
 565 0392 0296      		adiw r24,2
 566 0394 9E01      		movw r18,r28
 567 0396 295F      		subi r18,-7
 568 0398 3F4F      		sbci r19,-1
 569 039a 41E0      		ldi r20,lo8(1)
 570 039c B901      		movw r22,r18
 571 039e 0E94 0000 		call fromhex
 572 03a2 2F81      		ldd r18,Y+7
 573 03a4 8B81      		ldd r24,Y+3
 574 03a6 9C81      		ldd r25,Y+4
 575 03a8 FC01      		movw r30,r24
 576 03aa 2083      		st Z,r18
 577 03ac 8885      		ldd r24,Y+8
 578 03ae 9985      		ldd r25,Y+9
 579 03b0 0496      		adiw r24,4
 580 03b2 9E01      		movw r18,r28
 581 03b4 295F      		subi r18,-7
 582 03b6 3F4F      		sbci r19,-1
 583 03b8 41E0      		ldi r20,lo8(1)
 584 03ba B901      		movw r22,r18
 585 03bc 0E94 0000 		call fromhex
 586 03c0 8B81      		ldd r24,Y+3
 587 03c2 9C81      		ldd r25,Y+4
 588 03c4 0196      		adiw r24,1
 589 03c6 2F81      		ldd r18,Y+7
 590 03c8 207F      		andi r18,lo8(-16)
 591 03ca FC01      		movw r30,r24
 592 03cc 2083      		st Z,r18
 593 03ce 8885      		ldd r24,Y+8
 594 03d0 9985      		ldd r25,Y+9
 595 03d2 0696      		adiw r24,6
 596 03d4 9E01      		movw r18,r28
 597 03d6 295F      		subi r18,-7
 598 03d8 3F4F      		sbci r19,-1
 599 03da 41E0      		ldi r20,lo8(1)
 600 03dc B901      		movw r22,r18
 601 03de 0E94 0000 		call fromhex
 602 03e2 8B81      		ldd r24,Y+3
 603 03e4 9C81      		ldd r25,Y+4
 604 03e6 0296      		adiw r24,2
 605 03e8 2F81      		ldd r18,Y+7
 606 03ea FC01      		movw r30,r24
 607 03ec 2083      		st Z,r18
 608 03ee 8885      		ldd r24,Y+8
 609 03f0 9985      		ldd r25,Y+9
 610 03f2 0896      		adiw r24,8
 611 03f4 9E01      		movw r18,r28
 612 03f6 295F      		subi r18,-7
 613 03f8 3F4F      		sbci r19,-1
 614 03fa 41E0      		ldi r20,lo8(1)
 615 03fc B901      		movw r22,r18
 616 03fe 0E94 0000 		call fromhex
 617 0402 8B81      		ldd r24,Y+3
 618 0404 9C81      		ldd r25,Y+4
 619 0406 0396      		adiw r24,3
 620 0408 2F81      		ldd r18,Y+7
 621 040a FC01      		movw r30,r24
 622 040c 2083      		st Z,r18
 623 040e 8885      		ldd r24,Y+8
 624 0410 9985      		ldd r25,Y+9
 625 0412 0A96      		adiw r24,10
 626 0414 9E01      		movw r18,r28
 627 0416 295F      		subi r18,-7
 628 0418 3F4F      		sbci r19,-1
 629 041a 41E0      		ldi r20,lo8(1)
 630 041c B901      		movw r22,r18
 631 041e 0E94 0000 		call fromhex
 632 0422 8B81      		ldd r24,Y+3
 633 0424 9C81      		ldd r25,Y+4
 634 0426 0696      		adiw r24,6
 635 0428 2F81      		ldd r18,Y+7
 636 042a FC01      		movw r30,r24
 637 042c 2083      		st Z,r18
 638 042e 8885      		ldd r24,Y+8
 639 0430 9985      		ldd r25,Y+9
 640 0432 0C96      		adiw r24,12
 641 0434 9E01      		movw r18,r28
 642 0436 295F      		subi r18,-7
 643 0438 3F4F      		sbci r19,-1
 644 043a 41E0      		ldi r20,lo8(1)
 645 043c B901      		movw r22,r18
 646 043e 0E94 0000 		call fromhex
 647 0442 8B81      		ldd r24,Y+3
 648 0444 9C81      		ldd r25,Y+4
 649 0446 0596      		adiw r24,5
 650 0448 2F81      		ldd r18,Y+7
 651 044a FC01      		movw r30,r24
 652 044c 2083      		st Z,r18
 653 044e 8885      		ldd r24,Y+8
 654 0450 9985      		ldd r25,Y+9
 655 0452 0E96      		adiw r24,14
 656 0454 9E01      		movw r18,r28
 657 0456 295F      		subi r18,-7
 658 0458 3F4F      		sbci r19,-1
 659 045a 41E0      		ldi r20,lo8(1)
 660 045c B901      		movw r22,r18
 661 045e 0E94 0000 		call fromhex
 662 0462 8B81      		ldd r24,Y+3
 663 0464 9C81      		ldd r25,Y+4
 664 0466 0496      		adiw r24,4
 665 0468 2F81      		ldd r18,Y+7
 666 046a FC01      		movw r30,r24
 667 046c 2083      		st Z,r18
 668 046e 8B81      		ldd r24,Y+3
 669 0470 9C81      		ldd r25,Y+4
 670 0472 0E94 0000 		call somfy_rts_calc_checksum
 671 0476 882F      		mov r24,r24
 672 0478 90E0      		ldi r25,0
 673 047a AC01      		movw r20,r24
 674 047c 4F70      		andi r20,15
 675 047e 5527      		clr r21
 676 0480 8B81      		ldd r24,Y+3
 677 0482 9C81      		ldd r25,Y+4
 678 0484 0196      		adiw r24,1
 679 0486 2B81      		ldd r18,Y+3
 680 0488 3C81      		ldd r19,Y+4
 681 048a 2F5F      		subi r18,-1
 682 048c 3F4F      		sbci r19,-1
 683 048e F901      		movw r30,r18
 684 0490 2081      		ld r18,Z
 685 0492 322F      		mov r19,r18
 686 0494 242F      		mov r18,r20
 687 0496 232B      		or r18,r19
 688 0498 FC01      		movw r30,r24
 689 049a 2083      		st Z,r18
 690 049c 87E0      		ldi r24,lo8(7)
 691 049e 90E0      		ldi r25,0
 692 04a0 0E94 0000 		call malloc
 693 04a4 9E83      		std Y+6,r25
 694 04a6 8D83      		std Y+5,r24
 695 04a8 2B81      		ldd r18,Y+3
 696 04aa 3C81      		ldd r19,Y+4
 697 04ac 8D81      		ldd r24,Y+5
 698 04ae 9E81      		ldd r25,Y+6
 699 04b0 47E0      		ldi r20,lo8(7)
 700 04b2 50E0      		ldi r21,0
 701 04b4 B901      		movw r22,r18
 702 04b6 0E94 0000 		call memcpy
 703 04ba 81E0      		ldi r24,lo8(1)
 704 04bc 8983      		std Y+1,r24
 705 04be 00C0      		rjmp .L22
 706               	.L23:
 707 04c0 8981      		ldd r24,Y+1
 708 04c2 082E      		mov __tmp_reg__,r24
 709 04c4 000C      		lsl r0
 710 04c6 990B      		sbc r25,r25
 711 04c8 2B81      		ldd r18,Y+3
 712 04ca 3C81      		ldd r19,Y+4
 713 04cc 820F      		add r24,r18
 714 04ce 931F      		adc r25,r19
 715 04d0 2981      		ldd r18,Y+1
 716 04d2 022E      		mov __tmp_reg__,r18
 717 04d4 000C      		lsl r0
 718 04d6 330B      		sbc r19,r19
 719 04d8 4B81      		ldd r20,Y+3
 720 04da 5C81      		ldd r21,Y+4
 721 04dc 240F      		add r18,r20
 722 04de 351F      		adc r19,r21
 723 04e0 F901      		movw r30,r18
 724 04e2 6081      		ld r22,Z
 725 04e4 2981      		ldd r18,Y+1
 726 04e6 022E      		mov __tmp_reg__,r18
 727 04e8 000C      		lsl r0
 728 04ea 330B      		sbc r19,r19
 729 04ec 2150      		subi r18,1
 730 04ee 3109      		sbc r19,__zero_reg__
 731 04f0 4B81      		ldd r20,Y+3
 732 04f2 5C81      		ldd r21,Y+4
 733 04f4 240F      		add r18,r20
 734 04f6 351F      		adc r19,r21
 735 04f8 F901      		movw r30,r18
 736 04fa 2081      		ld r18,Z
 737 04fc 2627      		eor r18,r22
 738 04fe FC01      		movw r30,r24
 739 0500 2083      		st Z,r18
 740 0502 8981      		ldd r24,Y+1
 741 0504 8F5F      		subi r24,lo8(-(1))
 742 0506 8983      		std Y+1,r24
 743               	.L22:
 744 0508 8981      		ldd r24,Y+1
 745 050a 8730      		cpi r24,lo8(7)
 746 050c 04F0      		brlt .L23
 747 050e 85E2      		ldi r24,lo8(37)
 748 0510 90E0      		ldi r25,0
 749 0512 25E2      		ldi r18,lo8(37)
 750 0514 30E0      		ldi r19,0
 751 0516 F901      		movw r30,r18
 752 0518 2081      		ld r18,Z
 753 051a 2160      		ori r18,lo8(1)
 754 051c FC01      		movw r30,r24
 755 051e 2083      		st Z,r18
 756 0520 8091 0000 		lds r24,somfy_rts_on
 757 0524 8823      		tst r24
 758 0526 01F4      		brne .L24
 759 0528 8091 0000 		lds r24,asksin_on
 760 052c 8823      		tst r24
 761 052e 01F0      		breq .L25
 762 0530 81E0      		ldi r24,lo8(1)
 763 0532 8093 0000 		sts somfy_restore_asksin,r24
 764 0536 1092 0000 		sts asksin_on,__zero_reg__
 765               	.L25:
 766 053a 0E94 0000 		call somfy_rts_tunein
 767 053e 83E0      		ldi r24,lo8(3)
 768 0540 0E94 0000 		call my_delay_ms
 769               	.L24:
 770 0544 86E3      		ldi r24,lo8(54)
 771 0546 0E94 0000 		call ccStrobe
 772 054a 8AE3      		ldi r24,lo8(58)
 773 054c 0E94 0000 		call ccStrobe
 774 0550 8BE3      		ldi r24,lo8(59)
 775 0552 0E94 0000 		call ccStrobe
 776 0556 0E94 0000 		call ccTX
 777 055a 85E2      		ldi r24,lo8(37)
 778 055c 90E0      		ldi r25,0
 779 055e 25E2      		ldi r18,lo8(37)
 780 0560 30E0      		ldi r19,0
 781 0562 F901      		movw r30,r18
 782 0564 2081      		ld r18,Z
 783 0566 2860      		ori r18,lo8(8)
 784 0568 FC01      		movw r30,r24
 785 056a 2083      		st Z,r18
 786 056c 87EC      		ldi r24,lo8(-57)
 787 056e 94E2      		ldi r25,lo8(36)
 788 0570 0E94 0000 		call my_delay_us
 789 0574 85E2      		ldi r24,lo8(37)
 790 0576 90E0      		ldi r25,0
 791 0578 25E2      		ldi r18,lo8(37)
 792 057a 30E0      		ldi r19,0
 793 057c F901      		movw r30,r18
 794 057e 2081      		ld r18,Z
 795 0580 277F      		andi r18,lo8(-9)
 796 0582 FC01      		movw r30,r24
 797 0584 2083      		st Z,r18
 798 0586 89E5      		ldi r24,lo8(89)
 799 0588 0E94 0000 		call my_delay_ms
 800 058c 85E3      		ldi r24,lo8(53)
 801 058e 92E0      		ldi r25,lo8(2)
 802 0590 0E94 0000 		call my_delay_us
 803 0594 1982      		std Y+1,__zero_reg__
 804 0596 00C0      		rjmp .L26
 805               	.L29:
 806 0598 8981      		ldd r24,Y+1
 807 059a 8823      		tst r24
 808 059c 01F4      		brne .L27
 809 059e 22E0      		ldi r18,lo8(2)
 810 05a0 00C0      		rjmp .L28
 811               	.L27:
 812 05a2 27E0      		ldi r18,lo8(7)
 813               	.L28:
 814 05a4 8B81      		ldd r24,Y+3
 815 05a6 9C81      		ldd r25,Y+4
 816 05a8 622F      		mov r22,r18
 817 05aa 0E94 0000 		call send_somfy_rts_frame
 818 05ae 8981      		ldd r24,Y+1
 819 05b0 8F5F      		subi r24,lo8(-(1))
 820 05b2 8983      		std Y+1,r24
 821               	.L26:
 822 05b4 8981      		ldd r24,Y+1
 823 05b6 282F      		mov r18,r24
 824 05b8 880F      		lsl r24
 825 05ba 330B      		sbc r19,r19
 826 05bc 8091 0000 		lds r24,somfy_rts_repetition
 827 05c0 882F      		mov r24,r24
 828 05c2 90E0      		ldi r25,0
 829 05c4 2817      		cp r18,r24
 830 05c6 3907      		cpc r19,r25
 831 05c8 04F0      		brlt .L29
 832 05ca 8091 0000 		lds r24,somfy_rts_on
 833 05ce 8823      		tst r24
 834 05d0 01F0      		breq .L30
 835 05d2 8091 0000 		lds r24,tx_report
 836 05d6 8823      		tst r24
 837 05d8 01F0      		breq .L31
 838 05da 0E94 0000 		call ccRX
 839 05de 00C0      		rjmp .L33
 840               	.L31:
 841 05e0 86E3      		ldi r24,lo8(54)
 842 05e2 0E94 0000 		call ccStrobe
 843 05e6 00C0      		rjmp .L33
 844               	.L30:
 845 05e8 8091 0000 		lds r24,somfy_restore_asksin
 846 05ec 8823      		tst r24
 847 05ee 01F0      		breq .L34
 848 05f0 1092 0000 		sts somfy_restore_asksin,__zero_reg__
 849 05f4 0E94 0000 		call rf_asksin_init
 850 05f8 81E0      		ldi r24,lo8(1)
 851 05fa 8093 0000 		sts asksin_on,r24
 852 05fe 0E94 0000 		call ccRX
 853 0602 00C0      		rjmp .L33
 854               	.L34:
 855 0604 0E94 0000 		call set_txrestore
 856               	.L33:
 857 0608 85E2      		ldi r24,lo8(37)
 858 060a 90E0      		ldi r25,0
 859 060c 25E2      		ldi r18,lo8(37)
 860 060e 30E0      		ldi r19,0
 861 0610 F901      		movw r30,r18
 862 0612 2081      		ld r18,Z
 863 0614 2E7F      		andi r18,lo8(-2)
 864 0616 FC01      		movw r30,r24
 865 0618 2083      		st Z,r18
 866 061a 89E5      		ldi r24,lo8(89)
 867 061c 0E94 0000 		call display_char
 868 0620 83E7      		ldi r24,lo8(115)
 869 0622 0E94 0000 		call display_char
 870 0626 1A82      		std Y+2,__zero_reg__
 871 0628 00C0      		rjmp .L35
 872               	.L36:
 873 062a 8A81      		ldd r24,Y+2
 874 062c 082E      		mov __tmp_reg__,r24
 875 062e 000C      		lsl r0
 876 0630 990B      		sbc r25,r25
 877 0632 2D81      		ldd r18,Y+5
 878 0634 3E81      		ldd r19,Y+6
 879 0636 820F      		add r24,r18
 880 0638 931F      		adc r25,r19
 881 063a FC01      		movw r30,r24
 882 063c 8081      		ld r24,Z
 883 063e 0E94 0000 		call display_hex2
 884 0642 8A81      		ldd r24,Y+2
 885 0644 8F5F      		subi r24,lo8(-(1))
 886 0646 8A83      		std Y+2,r24
 887               	.L35:
 888 0648 8A81      		ldd r24,Y+2
 889 064a 8730      		cpi r24,lo8(7)
 890 064c 04F0      		brlt .L36
 891 064e 0E94 0000 		call display_nl
 892 0652 8D81      		ldd r24,Y+5
 893 0654 9E81      		ldd r25,Y+6
 894 0656 0E94 0000 		call free
 895 065a 8B81      		ldd r24,Y+3
 896 065c 9C81      		ldd r25,Y+4
 897 065e 0E94 0000 		call free
 898               	/* epilogue start */
 899 0662 2996      		adiw r28,9
 900 0664 E2E0      		ldi r30, lo8(2)
 901 0666 0C94 0000 		jmp __epilogue_restores__ + ((18 - 2) * 2)
 903               	.global	somfy_rts_func
 905               	somfy_rts_func:
 906 066a A2E0      		ldi r26,lo8(2)
 907 066c B0E0      		ldi r27,0
 908 066e E0E0      		ldi r30,lo8(gs(1f))
 909 0670 F0E0      		ldi r31,hi8(gs(1f))
 910 0672 0C94 0000 		jmp __prologue_saves__+((18 - 2) * 2)
 911               	1:
 912               	/* prologue: function */
 913               	/* frame size = 2 */
 914               	/* stack size = 4 */
 915               	.L__stack_usage = 4
 916 0676 9A83      		std Y+2,r25
 917 0678 8983      		std Y+1,r24
 918 067a 8981      		ldd r24,Y+1
 919 067c 9A81      		ldd r25,Y+2
 920 067e 0196      		adiw r24,1
 921 0680 FC01      		movw r30,r24
 922 0682 8081      		ld r24,Z
 923 0684 8337      		cpi r24,lo8(115)
 924 0686 01F4      		brne .L38
 925 0688 8981      		ldd r24,Y+1
 926 068a 9A81      		ldd r25,Y+2
 927 068c 0E94 0000 		call somfy_rts_send
 928 0690 00C0      		rjmp .L37
 929               	.L38:
 930 0692 8981      		ldd r24,Y+1
 931 0694 9A81      		ldd r25,Y+2
 932 0696 0196      		adiw r24,1
 933 0698 FC01      		movw r30,r24
 934 069a 8081      		ld r24,Z
 935 069c 8237      		cpi r24,lo8(114)
 936 069e 01F4      		brne .L40
 937 06a0 8981      		ldd r24,Y+1
 938 06a2 9A81      		ldd r25,Y+2
 939 06a4 0296      		adiw r24,2
 940 06a6 60E0      		ldi r22,lo8(somfy_rts_repetition)
 941 06a8 70E0      		ldi r23,hi8(somfy_rts_repetition)
 942 06aa 0E94 0000 		call fromdec
 943 06ae 89E5      		ldi r24,lo8(89)
 944 06b0 0E94 0000 		call display_char
 945 06b4 82E7      		ldi r24,lo8(114)
 946 06b6 0E94 0000 		call display_char
 947 06ba 8AE3      		ldi r24,lo8(58)
 948 06bc 0E94 0000 		call display_char
 949 06c0 8091 0000 		lds r24,somfy_rts_repetition
 950 06c4 882F      		mov r24,r24
 951 06c6 90E0      		ldi r25,0
 952 06c8 40E2      		ldi r20,lo8(32)
 953 06ca 60E0      		ldi r22,0
 954 06cc 0E94 0000 		call display_udec
 955 06d0 0E94 0000 		call display_nl
 956 06d4 00C0      		rjmp .L37
 957               	.L40:
 958 06d6 8981      		ldd r24,Y+1
 959 06d8 9A81      		ldd r25,Y+2
 960 06da 0196      		adiw r24,1
 961 06dc FC01      		movw r30,r24
 962 06de 8081      		ld r24,Z
 963 06e0 8437      		cpi r24,lo8(116)
 964 06e2 01F4      		brne .L41
 965 06e4 8981      		ldd r24,Y+1
 966 06e6 9A81      		ldd r25,Y+2
 967 06e8 0296      		adiw r24,2
 968 06ea FC01      		movw r30,r24
 969 06ec 8081      		ld r24,Z
 970 06ee 8033      		cpi r24,lo8(48)
 971 06f0 01F4      		brne .L42
 972 06f2 88ED      		ldi r24,lo8(-40)
 973 06f4 94E0      		ldi r25,lo8(4)
 974 06f6 9093 0000 		sts somfy_rts_interval+1,r25
 975 06fa 8093 0000 		sts somfy_rts_interval,r24
 976 06fe 00C0      		rjmp .L43
 977               	.L42:
 978 0700 8981      		ldd r24,Y+1
 979 0702 9A81      		ldd r25,Y+2
 980 0704 0296      		adiw r24,2
 981 0706 60E0      		ldi r22,lo8(somfy_rts_interval)
 982 0708 70E0      		ldi r23,hi8(somfy_rts_interval)
 983 070a 0E94 0000 		call fromdec
 984               	.L43:
 985 070e 8091 0000 		lds r24,somfy_rts_interval
 986 0712 9091 0000 		lds r25,somfy_rts_interval+1
 987 0716 9695      		lsr r25
 988 0718 8795      		ror r24
 989 071a 9093 0000 		sts somfy_rts_interval_half+1,r25
 990 071e 8093 0000 		sts somfy_rts_interval_half,r24
 991 0722 89E5      		ldi r24,lo8(89)
 992 0724 0E94 0000 		call display_char
 993 0728 84E7      		ldi r24,lo8(116)
 994 072a 0E94 0000 		call display_char
 995 072e 8AE3      		ldi r24,lo8(58)
 996 0730 0E94 0000 		call display_char
 997 0734 8091 0000 		lds r24,somfy_rts_interval
 998 0738 9091 0000 		lds r25,somfy_rts_interval+1
 999 073c 40E2      		ldi r20,lo8(32)
 1000 073e 66E0      		ldi r22,lo8(6)
 1001 0740 0E94 0000 		call display_udec
 1002 0744 0E94 0000 		call display_nl
 1003 0748 00C0      		rjmp .L37
 1004               	.L41:
 1005 074a 8981      		ldd r24,Y+1
 1006 074c 9A81      		ldd r25,Y+2
 1007 074e 0196      		adiw r24,1
 1008 0750 FC01      		movw r30,r24
 1009 0752 8081      		ld r24,Z
 1010 0754 8837      		cpi r24,lo8(120)
 1011 0756 01F4      		brne .L37
 1012 0758 8091 0000 		lds r24,somfy_restore_asksin
 1013 075c 8823      		tst r24
 1014 075e 01F0      		breq .L44
 1015 0760 1092 0000 		sts somfy_restore_asksin,__zero_reg__
 1016 0764 0E94 0000 		call rf_asksin_init
 1017 0768 81E0      		ldi r24,lo8(1)
 1018 076a 8093 0000 		sts asksin_on,r24
 1019 076e 0E94 0000 		call ccRX
 1020 0772 00C0      		rjmp .L45
 1021               	.L44:
 1022 0774 82E0      		ldi r24,lo8(2)
 1023 0776 90E0      		ldi r25,0
 1024 0778 0E94 0000 		call ccInitChip
 1025 077c 8091 0000 		lds r24,tx_report
 1026 0780 8823      		tst r24
 1027 0782 01F0      		breq .L46
 1028 0784 0E94 0000 		call ccRX
 1029 0788 00C0      		rjmp .L45
 1030               	.L46:
 1031 078a 86E3      		ldi r24,lo8(54)
 1032 078c 0E94 0000 		call ccStrobe
 1033               	.L45:
 1034 0790 1092 0000 		sts somfy_rts_on,__zero_reg__
 1035               	.L37:
 1036               	/* epilogue start */
 1037 0794 2296      		adiw r28,2
 1038 0796 E2E0      		ldi r30, lo8(2)
 1039 0798 0C94 0000 		jmp __epilogue_restores__ + ((18 - 2) * 2)
 1041               		.ident	"GCC: (AVR_8_bit_GNU_Toolchain_3.5.0_1662) 4.9.2"
 1042               	.global __do_copy_data
 1043               	.global __do_clear_bss
DEFINED SYMBOLS
                            *ABS*:00000000 somfy_rts.c
C:\Users\Benny\AppData\Local\Temp\ccyrCfHw.s:2      *ABS*:0000003e __SP_H__
C:\Users\Benny\AppData\Local\Temp\ccyrCfHw.s:3      *ABS*:0000003d __SP_L__
C:\Users\Benny\AppData\Local\Temp\ccyrCfHw.s:4      *ABS*:0000003f __SREG__
C:\Users\Benny\AppData\Local\Temp\ccyrCfHw.s:5      *ABS*:00000000 __tmp_reg__
C:\Users\Benny\AppData\Local\Temp\ccyrCfHw.s:6      *ABS*:00000001 __zero_reg__
                            *COM*:00000001 packetCheckValues
                             .bss:00000002 somfy_rts_on
C:\Users\Benny\AppData\Local\Temp\ccyrCfHw.s:14     .progmem.data:00000000 CC1100_SOMFY_RTS_CFG
C:\Users\Benny\AppData\Local\Temp\ccyrCfHw.s:60     .bss:00000000 somfy_restore_asksin
C:\Users\Benny\AppData\Local\Temp\ccyrCfHw.s:65     .bss:00000001 somfy_restore_moritz
C:\Users\Benny\AppData\Local\Temp\ccyrCfHw.s:71     .data:00000000 somfy_rts_repetition
C:\Users\Benny\AppData\Local\Temp\ccyrCfHw.s:76     .data:00000001 somfy_rts_interval
C:\Users\Benny\AppData\Local\Temp\ccyrCfHw.s:81     .data:00000003 somfy_rts_interval_half
C:\Users\Benny\AppData\Local\Temp\ccyrCfHw.s:85     .text:00000000 somfy_rts_tunein
C:\Users\Benny\AppData\Local\Temp\ccyrCfHw.s:260    .text:0000015a send_somfy_rts_bitZero
C:\Users\Benny\AppData\Local\Temp\ccyrCfHw.s:300    .text:000001a8 send_somfy_rts_bitOne
C:\Users\Benny\AppData\Local\Temp\ccyrCfHw.s:340    .text:000001f6 send_somfy_rts_frame
C:\Users\Benny\AppData\Local\Temp\ccyrCfHw.s:486    .text:0000030e somfy_rts_calc_checksum
C:\Users\Benny\AppData\Local\Temp\ccyrCfHw.s:544    .text:00000370 somfy_rts_send
C:\Users\Benny\AppData\Local\Temp\ccyrCfHw.s:905    .text:0000066a somfy_rts_func

UNDEFINED SYMBOLS
__prologue_saves__
my_delay_us
ccStrobe
cc1100_sendbyte
erb
my_delay_ms
cc_on
checkFrequency
__epilogue_restores__
malloc
fromhex
memcpy
asksin_on
ccTX
tx_report
ccRX
rf_asksin_init
set_txrestore
display_char
display_hex2
display_nl
free
fromdec
display_udec
ccInitChip
__do_copy_data
__do_clear_bss
